
bootrom_64.elf:     file format elf64-littleriscv


Disassembly of section .text:

0000000000010000 <_entry>:
   10000:	0210011b          	addiw	sp,zero,33
   10004:	016a                	slli	sp,sp,0x1a
   10006:	1141                	addi	sp,sp,-16
   10008:	e402                	sd	zero,8(sp)
   1000a:	f14022f3          	csrr	t0,mhartid
   1000e:	02029d63          	bnez	t0,10048 <loop>
   10012:	5d50e0ef          	jal	ra,1ede6 <bootloader>
   10016:	20f0031b          	addiw	t1,zero,527
   1001a:	035a                	slli	t1,t1,0x16

000000000001001c <clean_loop>:
   1001c:	00230663          	beq	t1,sp,10028 <clean_done>
   10020:	00033023          	sd	zero,0(t1)
   10024:	0321                	addi	t1,t1,8
   10026:	bfdd                	j	1001c <clean_loop>

0000000000010028 <clean_done>:
   10028:	4285                	li	t0,1
   1002a:	e416                	sd	t0,8(sp)
   1002c:	0ff0000f          	fence

0000000000010030 <boot>:
   10030:	020000ef          	jal	ra,10050 <clear_all_but_sp>
   10034:	f1402573          	csrr	a0,mhartid
   10038:	00000597          	auipc	a1,0x0
   1003c:	09858593          	addi	a1,a1,152 # 100d0 <_dtb>
   10040:	0010029b          	addiw	t0,zero,1
   10044:	02fe                	slli	t0,t0,0x1f
   10046:	8282                	jr	t0

0000000000010048 <loop>:
   10048:	6322                	ld	t1,8(sp)
   1004a:	fe030fe3          	beqz	t1,10048 <loop>
   1004e:	b7cd                	j	10030 <boot>

0000000000010050 <clear_all_but_sp>:
   10050:	00000193          	li	gp,0
   10054:	00000213          	li	tp,0
   10058:	00000293          	li	t0,0
   1005c:	00000313          	li	t1,0
   10060:	00000393          	li	t2,0
   10064:	00000413          	li	s0,0
   10068:	00000493          	li	s1,0
   1006c:	00000513          	li	a0,0
   10070:	00000593          	li	a1,0
   10074:	00000613          	li	a2,0
   10078:	00000693          	li	a3,0
   1007c:	00000713          	li	a4,0
   10080:	00000793          	li	a5,0
   10084:	00000813          	li	a6,0
   10088:	00000893          	li	a7,0
   1008c:	00000913          	li	s2,0
   10090:	00000993          	li	s3,0
   10094:	00000a13          	li	s4,0
   10098:	00000a93          	li	s5,0
   1009c:	00000b13          	li	s6,0
   100a0:	00000b93          	li	s7,0
   100a4:	00000c13          	li	s8,0
   100a8:	00000c93          	li	s9,0
   100ac:	00000d13          	li	s10,0
   100b0:	00000d93          	li	s11,0
   100b4:	00000e13          	li	t3,0
   100b8:	00000e93          	li	t4,0
   100bc:	00000f13          	li	t5,0
   100c0:	00000f93          	li	t6,0
   100c4:	8082                	ret
	...

00000000000100d0 <_dtb>:
   100d0:	0dd0                	addi	a2,sp,724
   100d2:	edfe                	sd	t6,216(sp)
   100d4:	0000                	unimp
   100d6:	0000ee0b          	.4byte	0xee0b
   100da:	3800                	fld	fs0,48(s0)
   100dc:	0000                	unimp
   100de:	1c09                	addi	s8,s8,-30
   100e0:	0000                	unimp
   100e2:	2800                	fld	fs0,16(s0)
   100e4:	0000                	unimp
   100e6:	1100                	addi	s0,sp,160
   100e8:	0000                	unimp
   100ea:	1000                	addi	s0,sp,32
   100ec:	0000                	unimp
   100ee:	0000                	unimp
   100f0:	0000                	unimp
   100f2:	d202                	sw	zero,36(sp)
   100f4:	0000                	unimp
   100f6:	e408                	sd	a0,8(s0)
	...
   10108:	0000                	unimp
   1010a:	0100                	addi	s0,sp,128
   1010c:	0000                	unimp
   1010e:	0000                	unimp
   10110:	0000                	unimp
   10112:	0300                	addi	s0,sp,384
   10114:	0000                	unimp
   10116:	0400                	addi	s0,sp,512
   10118:	0000                	unimp
   1011a:	0000                	unimp
   1011c:	0000                	unimp
   1011e:	0200                	addi	s0,sp,256
   10120:	0000                	unimp
   10122:	0300                	addi	s0,sp,384
   10124:	0000                	unimp
   10126:	0400                	addi	s0,sp,512
   10128:	0000                	unimp
   1012a:	0f00                	addi	s0,sp,912
   1012c:	0000                	unimp
   1012e:	0200                	addi	s0,sp,256
   10130:	0000                	unimp
   10132:	0300                	addi	s0,sp,384
   10134:	0000                	unimp
   10136:	1400                	addi	s0,sp,544
   10138:	0000                	unimp
   1013a:	1b00                	addi	s0,sp,432
   1013c:	7465                	lui	s0,0xffff9
   1013e:	2c68                	fld	fa0,216(s0)
   10140:	7261                	lui	tp,0xffff8
   10142:	6169                	addi	sp,sp,208
   10144:	656e                	ld	a0,216(sp)
   10146:	622d                	lui	tp,0xb
   10148:	7261                	lui	tp,0xffff8
   1014a:	2d65                	addiw	s10,s10,25
   1014c:	6564                	ld	s1,200(a0)
   1014e:	0076                	c.slli	zero,0x1d
   10150:	0000                	unimp
   10152:	0300                	addi	s0,sp,384
   10154:	0000                	unimp
   10156:	1000                	addi	s0,sp,32
   10158:	0000                	unimp
   1015a:	2600                	fld	fs0,8(a2)
   1015c:	7465                	lui	s0,0xffff9
   1015e:	2c68                	fld	fa0,216(s0)
   10160:	7261                	lui	tp,0xffff8
   10162:	6169                	addi	sp,sp,208
   10164:	656e                	ld	a0,216(sp)
   10166:	622d                	lui	tp,0xb
   10168:	7261                	lui	tp,0xffff8
   1016a:	0065                	c.nop	25
   1016c:	0000                	unimp
   1016e:	0100                	addi	s0,sp,128
   10170:	736f6863          	bltu	t5,s6,108a0 <_dtb+0x7d0>
   10174:	6e65                	lui	t3,0x19
   10176:	0000                	unimp
   10178:	0000                	unimp
   1017a:	0300                	addi	s0,sp,384
   1017c:	0000                	unimp
   1017e:	1a00                	addi	s0,sp,304
   10180:	0000                	unimp
   10182:	2c00                	fld	fs0,24(s0)
   10184:	636f732f          	.4byte	0x636f732f
   10188:	7261752f          	.4byte	0x7261752f
   1018c:	4074                	lw	a3,68(s0)
   1018e:	3031                	.2byte	0x3031
   10190:	3030                	fld	fa2,96(s0)
   10192:	3030                	fld	fa2,96(s0)
   10194:	3030                	fld	fa2,96(s0)
   10196:	313a                	fld	ft2,424(sp)
   10198:	3531                	addiw	a0,a0,-20
   1019a:	3032                	fld	ft0,296(sp)
   1019c:	0030                	addi	a2,sp,8
   1019e:	0000                	unimp
   101a0:	0000                	unimp
   101a2:	0200                	addi	s0,sp,256
   101a4:	0000                	unimp
   101a6:	0100                	addi	s0,sp,128
   101a8:	73757063          	bgeu	a0,s7,108c8 <_dtb+0x7f8>
   101ac:	0000                	unimp
   101ae:	0000                	unimp
   101b0:	0000                	unimp
   101b2:	0300                	addi	s0,sp,384
   101b4:	0000                	unimp
   101b6:	0400                	addi	s0,sp,512
   101b8:	0000                	unimp
   101ba:	0000                	unimp
   101bc:	0000                	unimp
   101be:	0100                	addi	s0,sp,128
   101c0:	0000                	unimp
   101c2:	0300                	addi	s0,sp,384
   101c4:	0000                	unimp
   101c6:	0400                	addi	s0,sp,512
   101c8:	0000                	unimp
   101ca:	0f00                	addi	s0,sp,912
   101cc:	0000                	unimp
   101ce:	0000                	unimp
   101d0:	0000                	unimp
   101d2:	0300                	addi	s0,sp,384
   101d4:	0000                	unimp
   101d6:	0400                	addi	s0,sp,512
   101d8:	0000                	unimp
   101da:	3800                	fld	fs0,48(s0)
   101dc:	7d01                	lui	s10,0xfffe0
   101de:	4078                	lw	a4,68(s0)
   101e0:	0000                	unimp
   101e2:	0100                	addi	s0,sp,128
   101e4:	40757063          	bgeu	a0,t2,105e4 <_dtb+0x514>
   101e8:	0030                	addi	a2,sp,8
   101ea:	0000                	unimp
   101ec:	0000                	unimp
   101ee:	0300                	addi	s0,sp,384
   101f0:	0000                	unimp
   101f2:	0400                	addi	s0,sp,512
   101f4:	0000                	unimp
   101f6:	4b00                	lw	s0,16(a4)
   101f8:	fa02                	sd	zero,304(sp)
   101fa:	80f0                	.2byte	0x80f0
   101fc:	0000                	unimp
   101fe:	0300                	addi	s0,sp,384
   10200:	0000                	unimp
   10202:	0400                	addi	s0,sp,512
   10204:	0000                	unimp
   10206:	5b00                	lw	s0,48(a4)
   10208:	00757063          	bgeu	a0,t2,10208 <_dtb+0x138>
   1020c:	0000                	unimp
   1020e:	0300                	addi	s0,sp,384
   10210:	0000                	unimp
   10212:	0400                	addi	s0,sp,512
   10214:	0000                	unimp
   10216:	6700                	ld	s0,8(a4)
   10218:	0000                	unimp
   1021a:	0000                	unimp
   1021c:	0000                	unimp
   1021e:	0300                	addi	s0,sp,384
   10220:	0000                	unimp
   10222:	0500                	addi	s0,sp,640
   10224:	0000                	unimp
   10226:	6b00                	ld	s0,16(a4)
   10228:	79616b6f          	jal	s6,269be <_RODATA_END_+0x74be>
   1022c:	0000                	unimp
   1022e:	0000                	unimp
   10230:	0000                	unimp
   10232:	0300                	addi	s0,sp,384
   10234:	0000                	unimp
   10236:	1200                	addi	s0,sp,288
   10238:	0000                	unimp
   1023a:	1b00                	addi	s0,sp,432
   1023c:	7465                	lui	s0,0xffff9
   1023e:	2c68                	fld	fa0,216(s0)
   10240:	6120                	ld	s0,64(a0)
   10242:	6972                	ld	s2,280(sp)
   10244:	6e61                	lui	t3,0x18
   10246:	0065                	c.nop	25
   10248:	6972                	ld	s2,280(sp)
   1024a:	00766373          	csrrsi	t1,0x7,12
   1024e:	0000                	unimp
   10250:	0000                	unimp
   10252:	0300                	addi	s0,sp,384
   10254:	0000                	unimp
   10256:	0900                	addi	s0,sp,144
   10258:	0000                	unimp
   1025a:	7200                	ld	s0,32(a2)
   1025c:	7672                	ld	a2,312(sp)
   1025e:	3436                	fld	fs0,360(sp)
   10260:	6d69                	lui	s10,0x1a
   10262:	6361                	lui	t1,0x18
   10264:	0000                	unimp
   10266:	0000                	unimp
   10268:	0000                	unimp
   1026a:	0300                	addi	s0,sp,384
   1026c:	0000                	unimp
   1026e:	0b00                	addi	s0,sp,400
   10270:	0000                	unimp
   10272:	7c00                	ld	s0,56(s0)
   10274:	6972                	ld	s2,280(sp)
   10276:	2c766373          	csrrsi	t1,0x2c7,12
   1027a:	39337673          	csrrci	a2,0x393,6
   1027e:	0000                	unimp
   10280:	0000                	unimp
   10282:	0300                	addi	s0,sp,384
   10284:	0000                	unimp
   10286:	0000                	unimp
   10288:	0000                	unimp
   1028a:	8500                	.2byte	0x8500
   1028c:	0000                	unimp
   1028e:	0100                	addi	s0,sp,128
   10290:	6e69                	lui	t3,0x1a
   10292:	6574                	ld	a3,200(a0)
   10294:	7272                	ld	tp,312(sp)
   10296:	7075                	c.lui	zero,0xffffd
   10298:	2d74                	fld	fa3,216(a0)
   1029a:	746e6f63          	bltu	t3,t1,109f8 <_dtb+0x928>
   1029e:	6f72                	ld	t5,280(sp)
   102a0:	6c6c                	ld	a1,216(s0)
   102a2:	7265                	lui	tp,0xffff9
   102a4:	0000                	unimp
   102a6:	0000                	unimp
   102a8:	0000                	unimp
   102aa:	0300                	addi	s0,sp,384
   102ac:	0000                	unimp
   102ae:	0400                	addi	s0,sp,512
   102b0:	0000                	unimp
   102b2:	8f00                	.2byte	0x8f00
   102b4:	0000                	unimp
   102b6:	0100                	addi	s0,sp,128
   102b8:	0000                	unimp
   102ba:	0300                	addi	s0,sp,384
   102bc:	0000                	unimp
   102be:	0000                	unimp
   102c0:	0000                	unimp
   102c2:	a000                	fsd	fs0,0(s0)
   102c4:	0000                	unimp
   102c6:	0300                	addi	s0,sp,384
   102c8:	0000                	unimp
   102ca:	0f00                	addi	s0,sp,912
   102cc:	0000                	unimp
   102ce:	1b00                	addi	s0,sp,432
   102d0:	6972                	ld	s2,280(sp)
   102d2:	2c766373          	csrrsi	t1,0x2c7,12
   102d6:	2d757063          	bgeu	a0,s7,10596 <_dtb+0x4c6>
   102da:	6e69                	lui	t3,0x1a
   102dc:	6374                	ld	a3,192(a4)
   102de:	0000                	unimp
   102e0:	0000                	unimp
   102e2:	0300                	addi	s0,sp,384
   102e4:	0000                	unimp
   102e6:	0400                	addi	s0,sp,512
   102e8:	0000                	unimp
   102ea:	b500                	fsd	fs0,40(a0)
   102ec:	0000                	unimp
   102ee:	0200                	addi	s0,sp,256
   102f0:	0000                	unimp
   102f2:	0200                	addi	s0,sp,256
   102f4:	0000                	unimp
   102f6:	0200                	addi	s0,sp,256
   102f8:	0000                	unimp
   102fa:	0200                	addi	s0,sp,256
   102fc:	0000                	unimp
   102fe:	0100                	addi	s0,sp,128
   10300:	656d                	lui	a0,0x1b
   10302:	6f6d                	lui	t5,0x1b
   10304:	7972                	ld	s2,312(sp)
   10306:	3840                	fld	fs0,176(s0)
   10308:	3030                	fld	fa2,96(s0)
   1030a:	3030                	fld	fa2,96(s0)
   1030c:	3030                	fld	fa2,96(s0)
   1030e:	0030                	addi	a2,sp,8
   10310:	0000                	unimp
   10312:	0300                	addi	s0,sp,384
   10314:	0000                	unimp
   10316:	0700                	addi	s0,sp,896
   10318:	0000                	unimp
   1031a:	5b00                	lw	s0,48(a4)
   1031c:	656d                	lui	a0,0x1b
   1031e:	6f6d                	lui	t5,0x1b
   10320:	7972                	ld	s2,312(sp)
   10322:	0000                	unimp
   10324:	0000                	unimp
   10326:	0300                	addi	s0,sp,384
   10328:	0000                	unimp
   1032a:	1000                	addi	s0,sp,32
   1032c:	0000                	unimp
   1032e:	6700                	ld	s0,8(a4)
   10330:	0000                	unimp
   10332:	0000                	unimp
   10334:	0080                	addi	s0,sp,64
   10336:	0000                	unimp
   10338:	0000                	unimp
   1033a:	0000                	unimp
   1033c:	0040                	addi	s0,sp,4
   1033e:	0000                	unimp
   10340:	0000                	unimp
   10342:	0200                	addi	s0,sp,256
   10344:	0000                	unimp
   10346:	0100                	addi	s0,sp,128
   10348:	656c                	ld	a1,200(a0)
   1034a:	7364                	ld	s1,224(a4)
   1034c:	0000                	unimp
   1034e:	0000                	unimp
   10350:	0000                	unimp
   10352:	0300                	addi	s0,sp,384
   10354:	0000                	unimp
   10356:	0a00                	addi	s0,sp,272
   10358:	0000                	unimp
   1035a:	1b00                	addi	s0,sp,432
   1035c:	6f697067          	.4byte	0x6f697067
   10360:	6c2d                	lui	s8,0xb
   10362:	6465                	lui	s0,0x19
   10364:	00000073          	ecall
   10368:	0000                	unimp
   1036a:	0100                	addi	s0,sp,128
   1036c:	6568                	ld	a0,200(a0)
   1036e:	7261                	lui	tp,0xffff8
   10370:	6274                	ld	a3,192(a2)
   10372:	6165                	addi	sp,sp,112
   10374:	2d74                	fld	fa3,216(a0)
   10376:	656c                	ld	a1,200(a0)
   10378:	0064                	addi	s1,sp,12
   1037a:	0000                	unimp
   1037c:	0000                	unimp
   1037e:	0300                	addi	s0,sp,384
   10380:	0000                	unimp
   10382:	0c00                	addi	s0,sp,528
   10384:	0000                	unimp
   10386:	bd00                	fsd	fs0,56(a0)
   10388:	0000                	unimp
   1038a:	0100                	addi	s0,sp,128
   1038c:	0000                	unimp
   1038e:	0100                	addi	s0,sp,128
   10390:	0000                	unimp
   10392:	0000                	unimp
   10394:	0000                	unimp
   10396:	0300                	addi	s0,sp,384
   10398:	0000                	unimp
   1039a:	0a00                	addi	s0,sp,272
   1039c:	0000                	unimp
   1039e:	c300                	sw	s0,0(a4)
   103a0:	6568                	ld	a0,200(a0)
   103a2:	7261                	lui	tp,0xffff8
   103a4:	6274                	ld	a3,192(a2)
   103a6:	6165                	addi	sp,sp,112
   103a8:	0074                	addi	a3,sp,12
   103aa:	0000                	unimp
   103ac:	0000                	unimp
   103ae:	0300                	addi	s0,sp,384
   103b0:	0000                	unimp
   103b2:	0000                	unimp
   103b4:	0000                	unimp
   103b6:	d900                	sw	s0,48(a0)
   103b8:	0000                	unimp
   103ba:	0200                	addi	s0,sp,256
   103bc:	0000                	unimp
   103be:	0200                	addi	s0,sp,256
   103c0:	0000                	unimp
   103c2:	0100                	addi	s0,sp,128
   103c4:	00636f73          	csrrsi	t5,0x6,6
   103c8:	0000                	unimp
   103ca:	0300                	addi	s0,sp,384
   103cc:	0000                	unimp
   103ce:	0400                	addi	s0,sp,512
   103d0:	0000                	unimp
   103d2:	0000                	unimp
   103d4:	0000                	unimp
   103d6:	0200                	addi	s0,sp,256
   103d8:	0000                	unimp
   103da:	0300                	addi	s0,sp,384
   103dc:	0000                	unimp
   103de:	0400                	addi	s0,sp,512
   103e0:	0000                	unimp
   103e2:	0f00                	addi	s0,sp,912
   103e4:	0000                	unimp
   103e6:	0200                	addi	s0,sp,256
   103e8:	0000                	unimp
   103ea:	0300                	addi	s0,sp,384
   103ec:	0000                	unimp
   103ee:	1f00                	addi	s0,sp,944
   103f0:	0000                	unimp
   103f2:	1b00                	addi	s0,sp,432
   103f4:	7465                	lui	s0,0xffff9
   103f6:	2c68                	fld	fa0,216(s0)
   103f8:	7261                	lui	tp,0xffff8
   103fa:	6169                	addi	sp,sp,208
   103fc:	656e                	ld	a0,216(sp)
   103fe:	622d                	lui	tp,0xb
   10400:	7261                	lui	tp,0xffff8
   10402:	2d65                	addiw	s10,s10,25 # 1a019 <base+0x5259>
   10404:	00636f73          	csrrsi	t5,0x6,6
   10408:	706d6973          	csrrsi	s2,0x706,26
   1040c:	656c                	ld	a1,200(a0)
   1040e:	622d                	lui	tp,0xb
   10410:	7375                	lui	t1,0xffffd
   10412:	0000                	unimp
   10414:	0000                	unimp
   10416:	0300                	addi	s0,sp,384
   10418:	0000                	unimp
   1041a:	0000                	unimp
   1041c:	0000                	unimp
   1041e:	f000                	sd	s0,32(s0)
   10420:	0000                	unimp
   10422:	0100                	addi	s0,sp,128
   10424:	6e696c63          	bltu	s2,t1,10b1c <_dtb+0xa4c>
   10428:	4074                	lw	a3,68(s0)
   1042a:	3032                	fld	ft0,296(sp)
   1042c:	3030                	fld	fa2,96(s0)
   1042e:	3030                	fld	fa2,96(s0)
   10430:	0030                	addi	a2,sp,8
   10432:	0000                	unimp
   10434:	0000                	unimp
   10436:	0300                	addi	s0,sp,384
   10438:	0000                	unimp
   1043a:	0d00                	addi	s0,sp,656
   1043c:	0000                	unimp
   1043e:	1b00                	addi	s0,sp,432
   10440:	6972                	ld	s2,280(sp)
   10442:	2c766373          	csrrsi	t1,0x2c7,12
   10446:	6e696c63          	bltu	s2,t1,10b3e <_dtb+0xa6e>
   1044a:	3074                	fld	fa3,224(s0)
   1044c:	0000                	unimp
   1044e:	0000                	unimp
   10450:	0000                	unimp
   10452:	0300                	addi	s0,sp,384
   10454:	0000                	unimp
   10456:	1000                	addi	s0,sp,32
   10458:	0000                	unimp
   1045a:	f700                	sd	s0,40(a4)
   1045c:	0000                	unimp
   1045e:	0200                	addi	s0,sp,256
   10460:	0000                	unimp
   10462:	0300                	addi	s0,sp,384
   10464:	0000                	unimp
   10466:	0200                	addi	s0,sp,256
   10468:	0000                	unimp
   1046a:	0700                	addi	s0,sp,896
   1046c:	0000                	unimp
   1046e:	0300                	addi	s0,sp,384
   10470:	0000                	unimp
   10472:	1000                	addi	s0,sp,32
   10474:	0000                	unimp
   10476:	6700                	ld	s0,8(a4)
   10478:	0000                	unimp
   1047a:	0000                	unimp
   1047c:	0002                	c.slli64	zero
   1047e:	0000                	unimp
   10480:	0000                	unimp
   10482:	0000                	unimp
   10484:	0c00                	addi	s0,sp,528
   10486:	0000                	unimp
   10488:	0000                	unimp
   1048a:	0300                	addi	s0,sp,384
   1048c:	0000                	unimp
   1048e:	0800                	addi	s0,sp,16
   10490:	0000                	unimp
   10492:	0b01                	addi	s6,s6,0
   10494:	746e6f63          	bltu	t3,t1,10bf2 <_dtb+0xb22>
   10498:	6f72                	ld	t5,280(sp)
   1049a:	006c                	addi	a1,sp,12
   1049c:	0000                	unimp
   1049e:	0200                	addi	s0,sp,256
   104a0:	0000                	unimp
   104a2:	0100                	addi	s0,sp,128
   104a4:	6e69                	lui	t3,0x1a
   104a6:	6574                	ld	a3,200(a0)
   104a8:	7272                	ld	tp,312(sp)
   104aa:	7075                	c.lui	zero,0xffffd
   104ac:	2d74                	fld	fa3,216(a0)
   104ae:	746e6f63          	bltu	t3,t1,10c0c <_dtb+0xb3c>
   104b2:	6f72                	ld	t5,280(sp)
   104b4:	6c6c                	ld	a1,216(s0)
   104b6:	7265                	lui	tp,0xffff9
   104b8:	6340                	ld	s0,128(a4)
   104ba:	3030                	fld	fa2,96(s0)
   104bc:	3030                	fld	fa2,96(s0)
   104be:	3030                	fld	fa2,96(s0)
   104c0:	0000                	unimp
   104c2:	0000                	unimp
   104c4:	0000                	unimp
   104c6:	0300                	addi	s0,sp,384
   104c8:	0000                	unimp
   104ca:	0400                	addi	s0,sp,512
	...
   104d4:	0000                	unimp
   104d6:	0300                	addi	s0,sp,384
   104d8:	0000                	unimp
   104da:	0400                	addi	s0,sp,512
   104dc:	0000                	unimp
   104de:	8f00                	.2byte	0x8f00
   104e0:	0000                	unimp
   104e2:	0100                	addi	s0,sp,128
   104e4:	0000                	unimp
   104e6:	0300                	addi	s0,sp,384
   104e8:	0000                	unimp
   104ea:	0c00                	addi	s0,sp,528
   104ec:	0000                	unimp
   104ee:	1b00                	addi	s0,sp,432
   104f0:	6972                	ld	s2,280(sp)
   104f2:	2c766373          	csrrsi	t1,0x2c7,12
   104f6:	6c70                	ld	a2,216(s0)
   104f8:	6369                	lui	t1,0x1a
   104fa:	0030                	addi	a2,sp,8
   104fc:	0000                	unimp
   104fe:	0300                	addi	s0,sp,384
   10500:	0000                	unimp
   10502:	0000                	unimp
   10504:	0000                	unimp
   10506:	a000                	fsd	fs0,0(s0)
   10508:	0000                	unimp
   1050a:	0300                	addi	s0,sp,384
   1050c:	0000                	unimp
   1050e:	1000                	addi	s0,sp,32
   10510:	0000                	unimp
   10512:	f700                	sd	s0,40(a4)
   10514:	0000                	unimp
   10516:	0200                	addi	s0,sp,256
   10518:	0000                	unimp
   1051a:	0b00                	addi	s0,sp,400
   1051c:	0000                	unimp
   1051e:	0200                	addi	s0,sp,256
   10520:	0000                	unimp
   10522:	0900                	addi	s0,sp,144
   10524:	0000                	unimp
   10526:	0300                	addi	s0,sp,384
   10528:	0000                	unimp
   1052a:	1000                	addi	s0,sp,32
   1052c:	0000                	unimp
   1052e:	6700                	ld	s0,8(a4)
   10530:	0000                	unimp
   10532:	0000                	unimp
   10534:	000c                	.2byte	0xc
   10536:	0000                	unimp
   10538:	0000                	unimp
   1053a:	0000                	unimp
   1053c:	0004                	.2byte	0x4
   1053e:	0000                	unimp
   10540:	0000                	unimp
   10542:	0300                	addi	s0,sp,384
   10544:	0000                	unimp
   10546:	0400                	addi	s0,sp,512
   10548:	0000                	unimp
   1054a:	1501                	addi	a0,a0,-32 # 1afe0 <base+0x6220>
   1054c:	0000                	unimp
   1054e:	0700                	addi	s0,sp,896
   10550:	0000                	unimp
   10552:	0300                	addi	s0,sp,384
   10554:	0000                	unimp
   10556:	0400                	addi	s0,sp,512
   10558:	0000                	unimp
   1055a:	2801                	sext.w	a6,a6
   1055c:	0000                	unimp
   1055e:	1e00                	addi	s0,sp,816
   10560:	0000                	unimp
   10562:	0300                	addi	s0,sp,384
   10564:	0000                	unimp
   10566:	0400                	addi	s0,sp,512
   10568:	0000                	unimp
   1056a:	b500                	fsd	fs0,40(a0)
   1056c:	0000                	unimp
   1056e:	0300                	addi	s0,sp,384
   10570:	0000                	unimp
   10572:	0200                	addi	s0,sp,256
   10574:	0000                	unimp
   10576:	0100                	addi	s0,sp,128
   10578:	6175                	addi	sp,sp,368
   1057a:	7472                	ld	s0,312(sp)
   1057c:	3140                	fld	fs0,160(a0)
   1057e:	3030                	fld	fa2,96(s0)
   10580:	3030                	fld	fa2,96(s0)
   10582:	3030                	fld	fa2,96(s0)
   10584:	0030                	addi	a2,sp,8
   10586:	0000                	unimp
   10588:	0000                	unimp
   1058a:	0300                	addi	s0,sp,384
   1058c:	0000                	unimp
   1058e:	0900                	addi	s0,sp,144
   10590:	0000                	unimp
   10592:	1b00                	addi	s0,sp,432
   10594:	736e                	ld	t1,248(sp)
   10596:	3631                	addiw	a2,a2,-20
   10598:	3535                	addiw	a0,a0,-19
   1059a:	6130                	ld	a2,64(a0)
   1059c:	0000                	unimp
   1059e:	0000                	unimp
   105a0:	0000                	unimp
   105a2:	0300                	addi	s0,sp,384
   105a4:	0000                	unimp
   105a6:	1000                	addi	s0,sp,32
   105a8:	0000                	unimp
   105aa:	6700                	ld	s0,8(a4)
   105ac:	0000                	unimp
   105ae:	0000                	unimp
   105b0:	0010                	.2byte	0x10
	...
   105ba:	0010                	.2byte	0x10
   105bc:	0000                	unimp
   105be:	0300                	addi	s0,sp,384
   105c0:	0000                	unimp
   105c2:	0400                	addi	s0,sp,512
   105c4:	0000                	unimp
   105c6:	4b00                	lw	s0,16(a4)
   105c8:	fa02                	sd	zero,304(sp)
   105ca:	80f0                	.2byte	0x80f0
   105cc:	0000                	unimp
   105ce:	0300                	addi	s0,sp,384
   105d0:	0000                	unimp
   105d2:	0400                	addi	s0,sp,512
   105d4:	0000                	unimp
   105d6:	3301                	addiw	t1,t1,-32 # 19fe0 <base+0x5220>
   105d8:	0100                	addi	s0,sp,128
   105da:	00c2                	slli	ra,ra,0x10
   105dc:	0000                	unimp
   105de:	0300                	addi	s0,sp,384
   105e0:	0000                	unimp
   105e2:	0400                	addi	s0,sp,512
   105e4:	0000                	unimp
   105e6:	4101                	li	sp,0
   105e8:	0000                	unimp
   105ea:	0300                	addi	s0,sp,384
   105ec:	0000                	unimp
   105ee:	0300                	addi	s0,sp,384
   105f0:	0000                	unimp
   105f2:	0400                	addi	s0,sp,512
   105f4:	0000                	unimp
   105f6:	5201                	li	tp,-32
   105f8:	0000                	unimp
   105fa:	0100                	addi	s0,sp,128
   105fc:	0000                	unimp
   105fe:	0300                	addi	s0,sp,384
   10600:	0000                	unimp
   10602:	0400                	addi	s0,sp,512
   10604:	0000                	unimp
   10606:	5d01                	li	s10,-32
   10608:	0000                	unimp
   1060a:	0200                	addi	s0,sp,256
   1060c:	0000                	unimp
   1060e:	0300                	addi	s0,sp,384
   10610:	0000                	unimp
   10612:	0400                	addi	s0,sp,512
   10614:	0000                	unimp
   10616:	6701                	.2byte	0x6701
   10618:	0000                	unimp
   1061a:	0400                	addi	s0,sp,512
   1061c:	0000                	unimp
   1061e:	0200                	addi	s0,sp,256
   10620:	0000                	unimp
   10622:	0100                	addi	s0,sp,128
   10624:	6974                	ld	a3,208(a0)
   10626:	656d                	lui	a0,0x1b
   10628:	4072                	.2byte	0x4072
   1062a:	3831                	addiw	a6,a6,-20
   1062c:	3030                	fld	fa2,96(s0)
   1062e:	3030                	fld	fa2,96(s0)
   10630:	3030                	fld	fa2,96(s0)
   10632:	0000                	unimp
   10634:	0000                	unimp
   10636:	0300                	addi	s0,sp,384
   10638:	0000                	unimp
   1063a:	0f00                	addi	s0,sp,912
   1063c:	0000                	unimp
   1063e:	1b00                	addi	s0,sp,432
   10640:	7570                	ld	a2,232(a0)
   10642:	706c                	ld	a1,224(s0)
   10644:	612c                	ld	a1,64(a0)
   10646:	6270                	ld	a2,192(a2)
   10648:	745f 6d69 7265      	.byte	0x5f, 0x74, 0x69, 0x6d, 0x65, 0x72
   1064e:	0000                	unimp
   10650:	0000                	unimp
   10652:	0300                	addi	s0,sp,384
   10654:	0000                	unimp
   10656:	1000                	addi	s0,sp,32
   10658:	0000                	unimp
   1065a:	5201                	li	tp,-32
   1065c:	0000                	unimp
   1065e:	0400                	addi	s0,sp,512
   10660:	0000                	unimp
   10662:	0500                	addi	s0,sp,640
   10664:	0000                	unimp
   10666:	0600                	addi	s0,sp,768
   10668:	0000                	unimp
   1066a:	0700                	addi	s0,sp,896
   1066c:	0000                	unimp
   1066e:	0300                	addi	s0,sp,384
   10670:	0000                	unimp
   10672:	1000                	addi	s0,sp,32
   10674:	0000                	unimp
   10676:	6700                	ld	s0,8(a4)
   10678:	0000                	unimp
   1067a:	0000                	unimp
   1067c:	0018                	.2byte	0x18
	...
   10686:	0010                	.2byte	0x10
   10688:	0000                	unimp
   1068a:	0300                	addi	s0,sp,384
   1068c:	0000                	unimp
   1068e:	0400                	addi	s0,sp,512
   10690:	0000                	unimp
   10692:	4101                	li	sp,0
   10694:	0000                	unimp
   10696:	0300                	addi	s0,sp,384
   10698:	0000                	unimp
   1069a:	0300                	addi	s0,sp,384
   1069c:	0000                	unimp
   1069e:	0800                	addi	s0,sp,16
   106a0:	0000                	unimp
   106a2:	0b01                	addi	s6,s6,0
   106a4:	746e6f63          	bltu	t3,t1,10e02 <print_uart_addr+0x8>
   106a8:	6f72                	ld	t5,280(sp)
   106aa:	006c                	addi	a1,sp,12
   106ac:	0000                	unimp
   106ae:	0200                	addi	s0,sp,256
   106b0:	0000                	unimp
   106b2:	0100                	addi	s0,sp,128
   106b4:	40697073          	csrci	0x406,18
   106b8:	3032                	fld	ft0,296(sp)
   106ba:	3030                	fld	fa2,96(s0)
   106bc:	3030                	fld	fa2,96(s0)
   106be:	3030                	fld	fa2,96(s0)
   106c0:	0000                	unimp
   106c2:	0000                	unimp
   106c4:	0000                	unimp
   106c6:	0300                	addi	s0,sp,384
   106c8:	0000                	unimp
   106ca:	2800                	fld	fs0,16(s0)
   106cc:	0000                	unimp
   106ce:	1b00                	addi	s0,sp,432
   106d0:	6c78                	ld	a4,216(s0)
   106d2:	786e                	ld	a6,248(sp)
   106d4:	782c                	ld	a1,112(s0)
   106d6:	7370                	ld	a2,224(a4)
   106d8:	732d                	lui	t1,0xfffeb
   106da:	6970                	ld	a2,208(a0)
   106dc:	322d                	addiw	tp,tp,-21 # ffffffffffff8feb <_RODATA_END_+0xfffffffffffd9aeb>
   106de:	302e                	fld	ft0,232(sp)
   106e0:	2e30                	fld	fa2,88(a2)
   106e2:	0062                	c.slli	zero,0x18
   106e4:	6c78                	ld	a4,216(s0)
   106e6:	786e                	ld	a6,248(sp)
   106e8:	782c                	ld	a1,112(s0)
   106ea:	7370                	ld	a2,224(a4)
   106ec:	732d                	lui	t1,0xfffeb
   106ee:	6970                	ld	a2,208(a0)
   106f0:	322d                	addiw	tp,tp,-21 # ffffffffffffffeb <_RODATA_END_+0xfffffffffffe0aeb>
   106f2:	302e                	fld	ft0,232(sp)
   106f4:	2e30                	fld	fa2,88(a2)
   106f6:	0061                	c.nop	24
   106f8:	0000                	unimp
   106fa:	0300                	addi	s0,sp,384
   106fc:	0000                	unimp
   106fe:	0400                	addi	s0,sp,512
   10700:	0000                	unimp
   10702:	0000                	unimp
   10704:	0000                	unimp
   10706:	0100                	addi	s0,sp,128
   10708:	0000                	unimp
   1070a:	0300                	addi	s0,sp,384
   1070c:	0000                	unimp
   1070e:	0400                	addi	s0,sp,512
   10710:	0000                	unimp
   10712:	0f00                	addi	s0,sp,912
   10714:	0000                	unimp
   10716:	0000                	unimp
   10718:	0000                	unimp
   1071a:	0300                	addi	s0,sp,384
   1071c:	0000                	unimp
   1071e:	0400                	addi	s0,sp,512
   10720:	0000                	unimp
   10722:	4101                	li	sp,0
   10724:	0000                	unimp
   10726:	0300                	addi	s0,sp,384
   10728:	0000                	unimp
   1072a:	0300                	addi	s0,sp,384
   1072c:	0000                	unimp
   1072e:	0800                	addi	s0,sp,16
   10730:	0000                	unimp
   10732:	5201                	li	tp,-32
   10734:	0000                	unimp
   10736:	0200                	addi	s0,sp,256
   10738:	0000                	unimp
   1073a:	0200                	addi	s0,sp,256
   1073c:	0000                	unimp
   1073e:	0300                	addi	s0,sp,384
   10740:	0000                	unimp
   10742:	1000                	addi	s0,sp,32
   10744:	0000                	unimp
   10746:	6700                	ld	s0,8(a4)
   10748:	0000                	unimp
   1074a:	0000                	unimp
   1074c:	0020                	addi	s0,sp,8
	...
   10756:	0010                	.2byte	0x10
   10758:	0000                	unimp
   1075a:	0300                	addi	s0,sp,384
   1075c:	0000                	unimp
   1075e:	0700                	addi	s0,sp,896
   10760:	0000                	unimp
   10762:	7401                	lui	s0,0xfffe0
   10764:	7461                	lui	s0,0xffff8
   10766:	6972                	ld	s2,280(sp)
   10768:	3778                	fld	fa4,232(a4)
   1076a:	0000                	unimp
   1076c:	0000                	unimp
   1076e:	0300                	addi	s0,sp,384
   10770:	0000                	unimp
   10772:	0400                	addi	s0,sp,512
   10774:	0000                	unimp
   10776:	8001                	c.srli64	s0
   10778:	0000                	unimp
   1077a:	0100                	addi	s0,sp,128
   1077c:	0000                	unimp
   1077e:	0300                	addi	s0,sp,384
   10780:	0000                	unimp
   10782:	0400                	addi	s0,sp,512
   10784:	0000                	unimp
   10786:	9001                	srli	s0,s0,0x20
   10788:	0000                	unimp
   1078a:	0100                	addi	s0,sp,128
   1078c:	0000                	unimp
   1078e:	0300                	addi	s0,sp,384
   10790:	0000                	unimp
   10792:	0400                	addi	s0,sp,512
   10794:	0000                	unimp
   10796:	a101                	j	10b96 <_dtb+0xac6>
   10798:	0000                	unimp
   1079a:	0800                	addi	s0,sp,16
   1079c:	0000                	unimp
   1079e:	0300                	addi	s0,sp,384
   107a0:	0000                	unimp
   107a2:	0400                	addi	s0,sp,512
   107a4:	0000                	unimp
   107a6:	b801                	j	ffb6 <_entry-0x4a>
   107a8:	0000                	unimp
   107aa:	0400                	addi	s0,sp,512
   107ac:	0000                	unimp
   107ae:	0100                	addi	s0,sp,128
   107b0:	6d6d                	lui	s10,0x1b
   107b2:	00304063          	bgtz	gp,107b2 <_dtb+0x6e2>
   107b6:	0000                	unimp
   107b8:	0000                	unimp
   107ba:	0300                	addi	s0,sp,384
   107bc:	0000                	unimp
   107be:	0d00                	addi	s0,sp,656
   107c0:	0000                	unimp
   107c2:	1b00                	addi	s0,sp,432
   107c4:	6d6d                	lui	s10,0x1b
   107c6:	70732d63          	.4byte	0x70732d63
   107ca:	2d69                	addiw	s10,s10,26 # 1b01a <base+0x625a>
   107cc:	746f6c73          	csrrsi	s8,0x746,30
   107d0:	0000                	unimp
   107d2:	0000                	unimp
   107d4:	0000                	unimp
   107d6:	0300                	addi	s0,sp,384
   107d8:	0000                	unimp
   107da:	0400                	addi	s0,sp,512
   107dc:	0000                	unimp
   107de:	6700                	ld	s0,8(a4)
   107e0:	0000                	unimp
   107e2:	0000                	unimp
   107e4:	0000                	unimp
   107e6:	0300                	addi	s0,sp,384
   107e8:	0000                	unimp
   107ea:	0400                	addi	s0,sp,512
   107ec:	0000                	unimp
   107ee:	c701                	beqz	a4,107f6 <_dtb+0x726>
   107f0:	be00                	fsd	fs0,56(a2)
   107f2:	20bc                	fld	fa5,64(s1)
   107f4:	0000                	unimp
   107f6:	0300                	addi	s0,sp,384
   107f8:	0000                	unimp
   107fa:	0800                	addi	s0,sp,16
   107fc:	0000                	unimp
   107fe:	d901                	beqz	a0,1070e <_dtb+0x63e>
   10800:	0000                	unimp
   10802:	e40c                	sd	a1,8(s0)
   10804:	0000                	unimp
   10806:	e40c                	sd	a1,8(s0)
   10808:	0000                	unimp
   1080a:	0300                	addi	s0,sp,384
   1080c:	0000                	unimp
   1080e:	0000                	unimp
   10810:	0000                	unimp
   10812:	e801                	bnez	s0,10822 <_dtb+0x752>
   10814:	0000                	unimp
   10816:	0200                	addi	s0,sp,256
   10818:	0000                	unimp
   1081a:	0200                	addi	s0,sp,256
   1081c:	0000                	unimp
   1081e:	0100                	addi	s0,sp,128
   10820:	6f6c                	ld	a1,216(a4)
   10822:	73697277          	.4byte	0x73697277
   10826:	74652d63          	.4byte	0x74652d63
   1082a:	4068                	lw	a0,68(s0)
   1082c:	30303033          	.4byte	0x30303033
   10830:	3030                	fld	fa2,96(s0)
   10832:	3030                	fld	fa2,96(s0)
   10834:	0000                	unimp
   10836:	0000                	unimp
   10838:	0000                	unimp
   1083a:	0300                	addi	s0,sp,384
   1083c:	0000                	unimp
   1083e:	0c00                	addi	s0,sp,528
   10840:	0000                	unimp
   10842:	1b00                	addi	s0,sp,432
   10844:	6f6c                	ld	a1,216(a4)
   10846:	73697277          	.4byte	0x73697277
   1084a:	74652d63          	.4byte	0x74652d63
   1084e:	0068                	addi	a0,sp,12
   10850:	0000                	unimp
   10852:	0300                	addi	s0,sp,384
   10854:	0000                	unimp
   10856:	0800                	addi	s0,sp,16
   10858:	0000                	unimp
   1085a:	5b00                	lw	s0,48(a4)
   1085c:	656e                	ld	a0,216(sp)
   1085e:	7774                	ld	a3,232(a4)
   10860:	006b726f          	jal	tp,c7866 <_RODATA_END_+0xa8366>
   10864:	0000                	unimp
   10866:	0300                	addi	s0,sp,384
   10868:	0000                	unimp
   1086a:	0400                	addi	s0,sp,512
   1086c:	0000                	unimp
   1086e:	4101                	li	sp,0
   10870:	0000                	unimp
   10872:	0300                	addi	s0,sp,384
   10874:	0000                	unimp
   10876:	0300                	addi	s0,sp,384
   10878:	0000                	unimp
   1087a:	0800                	addi	s0,sp,16
   1087c:	0000                	unimp
   1087e:	5201                	li	tp,-32
   10880:	0000                	unimp
   10882:	0300                	addi	s0,sp,384
   10884:	0000                	unimp
   10886:	0000                	unimp
   10888:	0000                	unimp
   1088a:	0300                	addi	s0,sp,384
   1088c:	0000                	unimp
   1088e:	0600                	addi	s0,sp,768
   10890:	0000                	unimp
   10892:	f301                	bnez	a4,10792 <_dtb+0x6c2>
   10894:	1800                	addi	s0,sp,48
   10896:	023e                	slli	tp,tp,0xf
   10898:	00007fe3          	bgeu	zero,zero,110b6 <spi_write_bytes+0xc2>
   1089c:	0000                	unimp
   1089e:	0300                	addi	s0,sp,384
   108a0:	0000                	unimp
   108a2:	1000                	addi	s0,sp,32
   108a4:	0000                	unimp
   108a6:	6700                	ld	s0,8(a4)
   108a8:	0000                	unimp
   108aa:	0000                	unimp
   108ac:	0030                	addi	a2,sp,8
	...
   108b6:	0080                	addi	s0,sp,64
   108b8:	0000                	unimp
   108ba:	0200                	addi	s0,sp,256
   108bc:	0000                	unimp
   108be:	0100                	addi	s0,sp,128
   108c0:	6f697067          	.4byte	0x6f697067
   108c4:	3440                	fld	fs0,168(s0)
   108c6:	3030                	fld	fa2,96(s0)
   108c8:	3030                	fld	fa2,96(s0)
   108ca:	3030                	fld	fa2,96(s0)
   108cc:	0030                	addi	a2,sp,8
   108ce:	0000                	unimp
   108d0:	0000                	unimp
   108d2:	0300                	addi	s0,sp,384
   108d4:	0000                	unimp
   108d6:	0400                	addi	s0,sp,512
   108d8:	0000                	unimp
   108da:	0502                	c.slli64	a0
   108dc:	0000                	unimp
   108de:	0200                	addi	s0,sp,256
   108e0:	0000                	unimp
   108e2:	0300                	addi	s0,sp,384
   108e4:	0000                	unimp
   108e6:	1500                	addi	s0,sp,672
   108e8:	0000                	unimp
   108ea:	1b00                	addi	s0,sp,432
   108ec:	6c78                	ld	a4,216(s0)
   108ee:	786e                	ld	a6,248(sp)
   108f0:	782c                	ld	a1,112(s0)
   108f2:	7370                	ld	a2,224(a4)
   108f4:	672d                	lui	a4,0xb
   108f6:	6970                	ld	a2,208(a0)
   108f8:	2e312d6f          	jal	s10,233da <_RODATA_END_+0x3eda>
   108fc:	3030                	fld	fa2,96(s0)
   108fe:	612e                	ld	sp,200(sp)
   10900:	0000                	unimp
   10902:	0000                	unimp
   10904:	0000                	unimp
   10906:	0300                	addi	s0,sp,384
   10908:	0000                	unimp
   1090a:	0000                	unimp
   1090c:	0000                	unimp
   1090e:	1102                	slli	sp,sp,0x20
   10910:	0000                	unimp
   10912:	0300                	addi	s0,sp,384
   10914:	0000                	unimp
   10916:	1000                	addi	s0,sp,32
   10918:	0000                	unimp
   1091a:	6700                	ld	s0,8(a4)
   1091c:	0000                	unimp
   1091e:	0000                	unimp
   10920:	0040                	addi	s0,sp,4
   10922:	0000                	unimp
   10924:	0000                	unimp
   10926:	0000                	unimp
   10928:	0100                	addi	s0,sp,128
   1092a:	0000                	unimp
   1092c:	0000                	unimp
   1092e:	0300                	addi	s0,sp,384
   10930:	0000                	unimp
   10932:	0400                	addi	s0,sp,512
   10934:	0000                	unimp
   10936:	2102                	fld	ft2,0(sp)
   10938:	0000                	unimp
   1093a:	0000                	unimp
   1093c:	0000                	unimp
   1093e:	0300                	addi	s0,sp,384
   10940:	0000                	unimp
   10942:	0400                	addi	s0,sp,512
   10944:	0000                	unimp
   10946:	3102                	fld	ft2,32(sp)
   10948:	0000                	unimp
   1094a:	0000                	unimp
   1094c:	0000                	unimp
   1094e:	0300                	addi	s0,sp,384
   10950:	0000                	unimp
   10952:	0400                	addi	s0,sp,512
   10954:	0000                	unimp
   10956:	4302                	lw	t1,0(sp)
   10958:	0000                	unimp
   1095a:	0000                	unimp
   1095c:	0000                	unimp
   1095e:	0300                	addi	s0,sp,384
   10960:	0000                	unimp
   10962:	0400                	addi	s0,sp,512
   10964:	0000                	unimp
   10966:	5502                	lw	a0,32(sp)
   10968:	0000                	unimp
   1096a:	0000                	unimp
   1096c:	0000                	unimp
   1096e:	0300                	addi	s0,sp,384
   10970:	0000                	unimp
   10972:	0400                	addi	s0,sp,512
   10974:	0000                	unimp
   10976:	6902                	ld	s2,0(sp)
   10978:	0000                	unimp
   1097a:	0800                	addi	s0,sp,16
   1097c:	0000                	unimp
   1097e:	0300                	addi	s0,sp,384
   10980:	0000                	unimp
   10982:	0400                	addi	s0,sp,512
   10984:	0000                	unimp
   10986:	7902                	ld	s2,32(sp)
   10988:	0000                	unimp
   1098a:	0800                	addi	s0,sp,16
   1098c:	0000                	unimp
   1098e:	0300                	addi	s0,sp,384
   10990:	0000                	unimp
   10992:	0400                	addi	s0,sp,512
   10994:	0000                	unimp
   10996:	8a02                	jr	s4
   10998:	0000                	unimp
   1099a:	0000                	unimp
   1099c:	0000                	unimp
   1099e:	0300                	addi	s0,sp,384
   109a0:	0000                	unimp
   109a2:	0400                	addi	s0,sp,512
   109a4:	0000                	unimp
   109a6:	a102                	fsd	ft0,128(sp)
   109a8:	0000                	unimp
   109aa:	0100                	addi	s0,sp,128
   109ac:	0000                	unimp
   109ae:	0300                	addi	s0,sp,384
   109b0:	0000                	unimp
   109b2:	0400                	addi	s0,sp,512
   109b4:	0000                	unimp
   109b6:	ae02                	fsd	ft0,280(sp)
   109b8:	ffff                	.2byte	0xffff
   109ba:	ffff                	.2byte	0xffff
   109bc:	0000                	unimp
   109be:	0300                	addi	s0,sp,384
   109c0:	0000                	unimp
   109c2:	0400                	addi	s0,sp,512
   109c4:	0000                	unimp
   109c6:	bf02                	fsd	ft0,440(sp)
   109c8:	ffff                	.2byte	0xffff
   109ca:	ffff                	.2byte	0xffff
   109cc:	0000                	unimp
   109ce:	0300                	addi	s0,sp,384
   109d0:	0000                	unimp
   109d2:	0400                	addi	s0,sp,512
   109d4:	0000                	unimp
   109d6:	b500                	fsd	fs0,40(a0)
   109d8:	0000                	unimp
   109da:	0100                	addi	s0,sp,128
   109dc:	0000                	unimp
   109de:	0200                	addi	s0,sp,256
   109e0:	0000                	unimp
   109e2:	0200                	addi	s0,sp,256
   109e4:	0000                	unimp
   109e6:	0200                	addi	s0,sp,256
   109e8:	0000                	unimp
   109ea:	0900                	addi	s0,sp,144
   109ec:	64646123          	.4byte	0x64646123
   109f0:	6572                	ld	a0,280(sp)
   109f2:	632d7373          	csrrci	t1,0x632,26
   109f6:	6c65                	lui	s8,0x19
   109f8:	736c                	ld	a1,224(a4)
   109fa:	2300                	fld	fs0,0(a4)
   109fc:	657a6973          	csrrsi	s2,0x657,20
   10a00:	632d                	lui	t1,0xb
   10a02:	6c65                	lui	s8,0x19
   10a04:	736c                	ld	a1,224(a4)
   10a06:	6300                	ld	s0,0(a4)
   10a08:	61706d6f          	jal	s10,1781e <base+0x2a5e>
   10a0c:	6974                	ld	a3,208(a0)
   10a0e:	6c62                	ld	s8,24(sp)
   10a10:	0065                	c.nop	25
   10a12:	6f6d                	lui	t5,0x1b
   10a14:	6564                	ld	s1,200(a0)
   10a16:	006c                	addi	a1,sp,12
   10a18:	6f647473          	csrrci	s0,0x6f6,8
   10a1c:	7475                	lui	s0,0xffffd
   10a1e:	702d                	c.lui	zero,0xfffeb
   10a20:	7461                	lui	s0,0xffff8
   10a22:	0068                	addi	a0,sp,12
   10a24:	6974                	ld	a3,208(a0)
   10a26:	656d                	lui	a0,0x1b
   10a28:	6162                	ld	sp,24(sp)
   10a2a:	662d6573          	csrrsi	a0,0x662,26
   10a2e:	6572                	ld	a0,280(sp)
   10a30:	7571                	lui	a0,0xffffc
   10a32:	6e65                	lui	t3,0x19
   10a34:	63007963          	bgeu	zero,a6,11066 <spi_write_bytes+0x72>
   10a38:	6f6c                	ld	a1,216(a4)
   10a3a:	662d6b63          	bltu	s10,sp,110b0 <spi_write_bytes+0xbc>
   10a3e:	6572                	ld	a0,280(sp)
   10a40:	7571                	lui	a0,0xffffc
   10a42:	6e65                	lui	t3,0x19
   10a44:	64007963          	bgeu	zero,zero,11096 <spi_write_bytes+0xa2>
   10a48:	7665                	lui	a2,0xffff9
   10a4a:	6369                	lui	t1,0x1a
   10a4c:	5f65                	li	t5,-7
   10a4e:	7974                	ld	a3,240(a0)
   10a50:	6570                	ld	a2,200(a0)
   10a52:	7200                	ld	s0,32(a2)
   10a54:	6765                	lui	a4,0x19
   10a56:	7300                	ld	s0,32(a4)
   10a58:	6174                	ld	a3,192(a0)
   10a5a:	7574                	ld	a3,232(a0)
   10a5c:	69720073          	.4byte	0x69720073
   10a60:	2c766373          	csrrsi	t1,0x2c7,12
   10a64:	7369                	lui	t1,0xffffa
   10a66:	0061                	c.nop	24
   10a68:	6d6d                	lui	s10,0x1b
   10a6a:	2d75                	addiw	s10,s10,29 # 1b01d <base+0x625d>
   10a6c:	7974                	ld	a3,240(a0)
   10a6e:	6570                	ld	a2,200(a0)
   10a70:	7400                	ld	s0,40(s0)
   10a72:	626c                	ld	a1,192(a2)
   10a74:	732d                	lui	t1,0xfffeb
   10a76:	6c70                	ld	a2,216(s0)
   10a78:	7469                	lui	s0,0xffffa
   10a7a:	2300                	fld	fs0,0(a4)
   10a7c:	6e69                	lui	t3,0x1a
   10a7e:	6574                	ld	a3,200(a0)
   10a80:	7272                	ld	tp,312(sp)
   10a82:	7075                	c.lui	zero,0xffffd
   10a84:	2d74                	fld	fa3,216(a0)
   10a86:	6c6c6563          	bltu	s8,t1,11150 <sd_cmd+0x50>
   10a8a:	6e690073          	.4byte	0x6e690073
   10a8e:	6574                	ld	a3,200(a0)
   10a90:	7272                	ld	tp,312(sp)
   10a92:	7075                	c.lui	zero,0xffffd
   10a94:	2d74                	fld	fa3,216(a0)
   10a96:	746e6f63          	bltu	t3,t1,111f4 <sd_cmd0+0x3a>
   10a9a:	6f72                	ld	t5,280(sp)
   10a9c:	6c6c                	ld	a1,216(s0)
   10a9e:	7265                	lui	tp,0xffff9
   10aa0:	7000                	ld	s0,32(s0)
   10aa2:	6168                	ld	a0,192(a0)
   10aa4:	646e                	ld	s0,216(sp)
   10aa6:	656c                	ld	a1,200(a0)
   10aa8:	6700                	ld	s0,8(a4)
   10aaa:	6970                	ld	a2,208(a0)
   10aac:	6c00736f          	jal	t1,1816c <base+0x33ac>
   10ab0:	6e69                	lui	t3,0x1a
   10ab2:	7875                	lui	a6,0xffffd
   10ab4:	642c                	ld	a1,72(s0)
   10ab6:	6665                	lui	a2,0x19
   10ab8:	7561                	lui	a0,0xffff8
   10aba:	746c                	ld	a1,232(s0)
   10abc:	742d                	lui	s0,0xfffeb
   10abe:	6972                	ld	s2,280(sp)
   10ac0:	72656767          	.4byte	0x72656767
   10ac4:	7200                	ld	s0,32(a2)
   10ac6:	7465                	lui	s0,0xffff9
   10ac8:	6961                	lui	s2,0x18
   10aca:	2d6e                	fld	fs10,216(sp)
   10acc:	74617473          	csrrci	s0,0x746,2
   10ad0:	2d65                	addiw	s10,s10,25
   10ad2:	70737573          	csrrci	a0,0x707,6
   10ad6:	6e65                	lui	t3,0x19
   10ad8:	6564                	ld	s1,200(a0)
   10ada:	0064                	addi	s1,sp,12
   10adc:	6172                	ld	sp,280(sp)
   10ade:	676e                	ld	a4,216(sp)
   10ae0:	7365                	lui	t1,0xffff9
   10ae2:	6900                	ld	s0,16(a0)
   10ae4:	746e                	ld	s0,248(sp)
   10ae6:	7265                	lui	tp,0xffff9
   10ae8:	7572                	ld	a0,312(sp)
   10aea:	7470                	ld	a2,232(s0)
   10aec:	78652d73          	csrrs	s10,0x786,a0
   10af0:	6574                	ld	a3,200(a0)
   10af2:	646e                	ld	s0,216(sp)
   10af4:	6465                	lui	s0,0x19
   10af6:	7200                	ld	s0,32(a2)
   10af8:	6765                	lui	a4,0x19
   10afa:	6e2d                	lui	t3,0xb
   10afc:	6d61                	lui	s10,0x18
   10afe:	7365                	lui	t1,0xffff9
   10b00:	7200                	ld	s0,32(a2)
   10b02:	7369                	lui	t1,0xffffa
   10b04:	6d2c7663          	bgeu	s8,s2,111d0 <sd_cmd0+0x16>
   10b08:	7861                	lui	a6,0xffff8
   10b0a:	702d                	c.lui	zero,0xfffeb
   10b0c:	6972                	ld	s2,280(sp)
   10b0e:	7469726f          	jal	tp,a8254 <_RODATA_END_+0x88d54>
   10b12:	0079                	c.nop	30
   10b14:	6972                	ld	s2,280(sp)
   10b16:	2c766373          	csrrsi	t1,0x2c7,12
   10b1a:	646e                	ld	s0,216(sp)
   10b1c:	7665                	lui	a2,0xffff9
   10b1e:	6300                	ld	s0,0(a4)
   10b20:	7275                	lui	tp,0xffffd
   10b22:	6572                	ld	a0,280(sp)
   10b24:	746e                	ld	s0,248(sp)
   10b26:	732d                	lui	t1,0xfffeb
   10b28:	6570                	ld	a2,200(a0)
   10b2a:	6465                	lui	s0,0x19
   10b2c:	6900                	ld	s0,16(a0)
   10b2e:	746e                	ld	s0,248(sp)
   10b30:	7265                	lui	tp,0xffff9
   10b32:	7572                	ld	a0,312(sp)
   10b34:	7470                	ld	a2,232(s0)
   10b36:	702d                	c.lui	zero,0xfffeb
   10b38:	7261                	lui	tp,0xffff8
   10b3a:	6e65                	lui	t3,0x19
   10b3c:	0074                	addi	a3,sp,12
   10b3e:	6e69                	lui	t3,0x1a
   10b40:	6574                	ld	a3,200(a0)
   10b42:	7272                	ld	tp,312(sp)
   10b44:	7075                	c.lui	zero,0xffffd
   10b46:	7374                	ld	a3,224(a4)
   10b48:	7200                	ld	s0,32(a2)
   10b4a:	6765                	lui	a4,0x19
   10b4c:	732d                	lui	t1,0xfffeb
   10b4e:	6968                	ld	a0,208(a0)
   10b50:	7466                	ld	s0,120(sp)
   10b52:	7200                	ld	s0,32(a2)
   10b54:	6765                	lui	a4,0x19
   10b56:	692d                	lui	s2,0xb
   10b58:	69772d6f          	jal	s10,839ee <_RODATA_END_+0x644ee>
   10b5c:	7464                	ld	s1,232(s0)
   10b5e:	0068                	addi	a0,sp,12
   10b60:	6c78                	ld	a4,216(s0)
   10b62:	786e                	ld	a6,248(sp)
   10b64:	662c                	ld	a1,72(a2)
   10b66:	6d61                	lui	s10,0x18
   10b68:	6c69                	lui	s8,0x1a
   10b6a:	0079                	c.nop	30
   10b6c:	6c78                	ld	a4,216(s0)
   10b6e:	786e                	ld	a6,248(sp)
   10b70:	662c                	ld	a1,72(a2)
   10b72:	6669                	lui	a2,0x1a
   10b74:	78652d6f          	jal	s10,632fa <_RODATA_END_+0x43dfa>
   10b78:	7369                	lui	t1,0xffffa
   10b7a:	0074                	addi	a3,sp,12
   10b7c:	6c78                	ld	a4,216(s0)
   10b7e:	786e                	ld	a6,248(sp)
   10b80:	6e2c                	ld	a1,88(a2)
   10b82:	6d75                	lui	s10,0x1d
   10b84:	732d                	lui	t1,0xfffeb
   10b86:	69622d73          	csrrs	s10,0x696,tp
   10b8a:	7374                	ld	a3,224(a4)
   10b8c:	7800                	ld	s0,48(s0)
   10b8e:	6e6c                	ld	a1,216(a2)
   10b90:	2c78                	fld	fa4,216(s0)
   10b92:	756e                	ld	a0,248(sp)
   10b94:	2d6d                	addiw	s10,s10,27 # 1d01b <sc_reduce+0x99d>
   10b96:	7274                	ld	a3,224(a2)
   10b98:	6e61                	lui	t3,0x18
   10b9a:	72656673          	csrrsi	a2,mhpmevent6h,10
   10b9e:	622d                	lui	tp,0xb
   10ba0:	7469                	lui	s0,0xffffa
   10ba2:	6c780073          	.4byte	0x6c780073
   10ba6:	786e                	ld	a6,248(sp)
   10ba8:	732c                	ld	a1,96(a4)
   10baa:	722d6b63          	bltu	s10,sp,112e0 <sd_cmd55+0x22>
   10bae:	7461                	lui	s0,0xffff8
   10bb0:	6f69                	lui	t5,0x1a
   10bb2:	7300                	ld	s0,32(a4)
   10bb4:	6970                	ld	a2,208(a0)
   10bb6:	6d2d                	lui	s10,0xb
   10bb8:	7861                	lui	a6,0xffff8
   10bba:	662d                	lui	a2,0xb
   10bbc:	6572                	ld	a0,280(sp)
   10bbe:	7571                	lui	a0,0xffffc
   10bc0:	6e65                	lui	t3,0x19
   10bc2:	76007963          	bgeu	zero,zero,11334 <sd_acmd41+0x10>
   10bc6:	61746c6f          	jal	s8,579dc <_RODATA_END_+0x384dc>
   10bca:	722d6567          	.4byte	0x722d6567
   10bce:	6e61                	lui	t3,0x18
   10bd0:	00736567          	.4byte	0x736567
   10bd4:	6964                	ld	s1,208(a0)
   10bd6:	6c626173          	csrrsi	sp,0x6c6,4
   10bda:	2d65                	addiw	s10,s10,25 # b019 <_entry-0x4fe7>
   10bdc:	6c007077          	.4byte	0x6c007077
   10be0:	6c61636f          	jal	t1,272a6 <_RODATA_END_+0x7da6>
   10be4:	6d2d                	lui	s10,0xb
   10be6:	6361                	lui	t1,0x18
   10be8:	612d                	addi	sp,sp,224
   10bea:	6464                	ld	s1,200(s0)
   10bec:	6572                	ld	a0,280(sp)
   10bee:	23007373          	csrrci	t1,0x230,0
   10bf2:	6f697067          	.4byte	0x6f697067
   10bf6:	632d                	lui	t1,0xb
   10bf8:	6c65                	lui	s8,0x19
   10bfa:	736c                	ld	a1,224(a4)
   10bfc:	6700                	ld	s0,8(a4)
   10bfe:	6970                	ld	a2,208(a0)
   10c00:	6f632d6f          	jal	s10,432f6 <_RODATA_END_+0x23df6>
   10c04:	746e                	ld	s0,248(sp)
   10c06:	6f72                	ld	t5,280(sp)
   10c08:	6c6c                	ld	a1,216(s0)
   10c0a:	7265                	lui	tp,0xffff9
   10c0c:	7800                	ld	s0,48(s0)
   10c0e:	6e6c                	ld	a1,216(a2)
   10c10:	2c78                	fld	fa4,216(s0)
   10c12:	6c61                	lui	s8,0x18
   10c14:	2d6c                	fld	fa1,216(a0)
   10c16:	6e69                	lui	t3,0x1a
   10c18:	7570                	ld	a2,232(a0)
   10c1a:	7374                	ld	a3,224(a4)
   10c1c:	7800                	ld	s0,48(s0)
   10c1e:	6e6c                	ld	a1,216(a2)
   10c20:	2c78                	fld	fa4,216(s0)
   10c22:	6c61                	lui	s8,0x18
   10c24:	2d6c                	fld	fa1,216(a0)
   10c26:	6e69                	lui	t3,0x1a
   10c28:	7570                	ld	a2,232(a0)
   10c2a:	7374                	ld	a3,224(a4)
   10c2c:	322d                	addiw	tp,tp,-21 # ffffffffffff8feb <_RODATA_END_+0xfffffffffffd9aeb>
   10c2e:	7800                	ld	s0,48(s0)
   10c30:	6e6c                	ld	a1,216(a2)
   10c32:	2c78                	fld	fa4,216(s0)
   10c34:	6f64                	ld	s1,216(a4)
   10c36:	7475                	lui	s0,0xffffd
   10c38:	642d                	lui	s0,0xb
   10c3a:	6665                	lui	a2,0x19
   10c3c:	7561                	lui	a0,0xffff8
   10c3e:	746c                	ld	a1,232(s0)
   10c40:	7800                	ld	s0,48(s0)
   10c42:	6e6c                	ld	a1,216(a2)
   10c44:	2c78                	fld	fa4,216(s0)
   10c46:	6f64                	ld	s1,216(a4)
   10c48:	7475                	lui	s0,0xffffd
   10c4a:	642d                	lui	s0,0xb
   10c4c:	6665                	lui	a2,0x19
   10c4e:	7561                	lui	a0,0xffff8
   10c50:	746c                	ld	a1,232(s0)
   10c52:	322d                	addiw	tp,tp,-21 # ffffffffffffffeb <_RODATA_END_+0xfffffffffffe0aeb>
   10c54:	7800                	ld	s0,48(s0)
   10c56:	6e6c                	ld	a1,216(a2)
   10c58:	2c78                	fld	fa4,216(s0)
   10c5a:	6f697067          	.4byte	0x6f697067
   10c5e:	772d                	lui	a4,0xfffeb
   10c60:	6469                	lui	s0,0x1a
   10c62:	6874                	ld	a3,208(s0)
   10c64:	7800                	ld	s0,48(s0)
   10c66:	6e6c                	ld	a1,216(a2)
   10c68:	2c78                	fld	fa4,216(s0)
   10c6a:	6f697067          	.4byte	0x6f697067
   10c6e:	2d32                	fld	fs10,264(sp)
   10c70:	74646977          	.4byte	0x74646977
   10c74:	0068                	addi	a0,sp,12
   10c76:	6c78                	ld	a4,216(s0)
   10c78:	786e                	ld	a6,248(sp)
   10c7a:	692c                	ld	a1,80(a0)
   10c7c:	746e                	ld	s0,248(sp)
   10c7e:	7265                	lui	tp,0xffff9
   10c80:	7572                	ld	a0,312(sp)
   10c82:	7470                	ld	a2,232(s0)
   10c84:	702d                	c.lui	zero,0xfffeb
   10c86:	6572                	ld	a0,280(sp)
   10c88:	746e6573          	csrrsi	a0,0x746,28
   10c8c:	7800                	ld	s0,48(s0)
   10c8e:	6e6c                	ld	a1,216(a2)
   10c90:	2c78                	fld	fa4,216(s0)
   10c92:	7369                	lui	t1,0xffffa
   10c94:	642d                	lui	s0,0xb
   10c96:	6175                	addi	sp,sp,368
   10c98:	006c                	addi	a1,sp,12
   10c9a:	6c78                	ld	a4,216(s0)
   10c9c:	786e                	ld	a6,248(sp)
   10c9e:	742c                	ld	a1,104(s0)
   10ca0:	6972                	ld	s2,280(sp)
   10ca2:	642d                	lui	s0,0xb
   10ca4:	6665                	lui	a2,0x19
   10ca6:	7561                	lui	a0,0xffff8
   10ca8:	746c                	ld	a1,232(s0)
   10caa:	7800                	ld	s0,48(s0)
   10cac:	6e6c                	ld	a1,216(a2)
   10cae:	2c78                	fld	fa4,216(s0)
   10cb0:	7274                	ld	a3,224(a2)
   10cb2:	2d69                	addiw	s10,s10,26 # b01a <_entry-0x4fe6>
   10cb4:	6564                	ld	s1,200(a0)
   10cb6:	6166                	ld	sp,88(sp)
   10cb8:	6c75                	lui	s8,0x1d
   10cba:	2d74                	fld	fa3,216(a0)
   10cbc:	0032                	c.slli	zero,0xc
   10cbe:	3641                	addiw	a2,a2,-16 # 18ff0 <base+0x4230>
   10cc0:	0000                	unimp
   10cc2:	7200                	ld	s0,32(a2)
   10cc4:	7369                	lui	t1,0xffffa
   10cc6:	01007663          	bgeu	zero,a6,10cd2 <_dtb+0xc02>
   10cca:	002c                	addi	a1,sp,8
   10ccc:	0000                	unimp
   10cce:	7205                	lui	tp,0xfffe1
   10cd0:	3676                	fld	fa2,376(sp)
   10cd2:	6934                	ld	a3,80(a0)
   10cd4:	7032                	.2byte	0x7032
   10cd6:	5f30                	lw	a2,120(a4)
   10cd8:	326d                	addiw	tp,tp,-5 # fffffffffffe0ffb <_RODATA_END_+0xfffffffffffc1afb>
   10cda:	3070                	fld	fa2,224(s0)
   10cdc:	615f 7032 5f30      	.byte	0x5f, 0x61, 0x32, 0x70, 0x30, 0x5f
   10ce2:	3266                	fld	ft4,120(sp)
   10ce4:	3070                	fld	fa2,224(s0)
   10ce6:	645f 7032 5f30      	.byte	0x5f, 0x64, 0x32, 0x70, 0x30, 0x5f
   10cec:	30703263          	.4byte	0x30703263
   10cf0:	0800                	addi	s0,sp,16
   10cf2:	0a01                	addi	s4,s4,0
   10cf4:	          	.4byte	0x23000b

0000000000010cf6 <write_reg_u8>:
   10cf6:	00b50023          	sb	a1,0(a0) # ffffffffffff8000 <_RODATA_END_+0xfffffffffffd8b00>
   10cfa:	8082                	ret

0000000000010cfc <read_reg_u8>:
   10cfc:	00054503          	lbu	a0,0(a0)
   10d00:	8082                	ret

0000000000010d02 <is_transmit_empty>:
   10d02:	100007b7          	lui	a5,0x10000
   10d06:	0147c503          	lbu	a0,20(a5) # 10000014 <_RODATA_END_+0xffe0b14>
   10d0a:	02057513          	andi	a0,a0,32
   10d0e:	8082                	ret

0000000000010d10 <write_serial>:
   10d10:	10000737          	lui	a4,0x10000
   10d14:	01474783          	lbu	a5,20(a4) # 10000014 <_RODATA_END_+0xffe0b14>
   10d18:	0207f793          	andi	a5,a5,32
   10d1c:	dfe5                	beqz	a5,10d14 <write_serial+0x4>
   10d1e:	00a70023          	sb	a0,0(a4)
   10d22:	8082                	ret

0000000000010d24 <init_uart>:
   10d24:	0045959b          	slliw	a1,a1,0x4
   10d28:	02b5553b          	divuw	a0,a0,a1
   10d2c:	100007b7          	lui	a5,0x10000
   10d30:	00078223          	sb	zero,4(a5) # 10000004 <_RODATA_END_+0xffe0b04>
   10d34:	f8000713          	li	a4,-128
   10d38:	00e78623          	sb	a4,12(a5)
   10d3c:	0ff57713          	zext.b	a4,a0
   10d40:	0085551b          	srliw	a0,a0,0x8
   10d44:	00e78023          	sb	a4,0(a5)
   10d48:	0ff57513          	zext.b	a0,a0
   10d4c:	00a78223          	sb	a0,4(a5)
   10d50:	470d                	li	a4,3
   10d52:	00e78623          	sb	a4,12(a5)
   10d56:	fc700713          	li	a4,-57
   10d5a:	00e78423          	sb	a4,8(a5)
   10d5e:	02000713          	li	a4,32
   10d62:	00e78823          	sb	a4,16(a5)
   10d66:	8082                	ret

0000000000010d68 <print_uart>:
   10d68:	00054683          	lbu	a3,0(a0)
   10d6c:	ce91                	beqz	a3,10d88 <print_uart+0x20>
   10d6e:	10000737          	lui	a4,0x10000
   10d72:	01474783          	lbu	a5,20(a4) # 10000014 <_RODATA_END_+0xffe0b14>
   10d76:	0207f793          	andi	a5,a5,32
   10d7a:	dfe5                	beqz	a5,10d72 <print_uart+0xa>
   10d7c:	00d70023          	sb	a3,0(a4)
   10d80:	00154683          	lbu	a3,1(a0)
   10d84:	0505                	addi	a0,a0,1
   10d86:	f6f5                	bnez	a3,10d72 <print_uart+0xa>
   10d88:	8082                	ret

0000000000010d8a <bin_to_hex>:
   10d8a:	00000797          	auipc	a5,0x0
   10d8e:	0fe78793          	addi	a5,a5,254 # 10e88 <bin_to_hex_table>
   10d92:	00f57713          	andi	a4,a0,15
   10d96:	973e                	add	a4,a4,a5
   10d98:	00074703          	lbu	a4,0(a4)
   10d9c:	8111                	srli	a0,a0,0x4
   10d9e:	97aa                	add	a5,a5,a0
   10da0:	00e580a3          	sb	a4,1(a1)
   10da4:	0007c783          	lbu	a5,0(a5)
   10da8:	00f58023          	sb	a5,0(a1)
   10dac:	8082                	ret

0000000000010dae <print_uart_int>:
   10dae:	00000597          	auipc	a1,0x0
   10db2:	4661                	li	a2,24
   10db4:	0da58593          	addi	a1,a1,218 # 10e88 <bin_to_hex_table>
   10db8:	10000737          	lui	a4,0x10000
   10dbc:	58e1                	li	a7,-8
   10dbe:	00c557bb          	srlw	a5,a0,a2
   10dc2:	0047d693          	srli	a3,a5,0x4
   10dc6:	8abd                	andi	a3,a3,15
   10dc8:	8bbd                	andi	a5,a5,15
   10dca:	97ae                	add	a5,a5,a1
   10dcc:	96ae                	add	a3,a3,a1
   10dce:	0007c803          	lbu	a6,0(a5)
   10dd2:	0006c683          	lbu	a3,0(a3)
   10dd6:	01474783          	lbu	a5,20(a4) # 10000014 <_RODATA_END_+0xffe0b14>
   10dda:	0207f793          	andi	a5,a5,32
   10dde:	dfe5                	beqz	a5,10dd6 <print_uart_int+0x28>
   10de0:	00d70023          	sb	a3,0(a4)
   10de4:	01474783          	lbu	a5,20(a4)
   10de8:	0207f793          	andi	a5,a5,32
   10dec:	dfe5                	beqz	a5,10de4 <print_uart_int+0x36>
   10dee:	01070023          	sb	a6,0(a4)
   10df2:	3661                	addiw	a2,a2,-8
   10df4:	fd1615e3          	bne	a2,a7,10dbe <print_uart_int+0x10>
   10df8:	8082                	ret

0000000000010dfa <print_uart_addr>:
   10dfa:	00000597          	auipc	a1,0x0
   10dfe:	03800613          	li	a2,56
   10e02:	08e58593          	addi	a1,a1,142 # 10e88 <bin_to_hex_table>
   10e06:	10000737          	lui	a4,0x10000
   10e0a:	58e1                	li	a7,-8
   10e0c:	00c557b3          	srl	a5,a0,a2
   10e10:	0047d693          	srli	a3,a5,0x4
   10e14:	8abd                	andi	a3,a3,15
   10e16:	8bbd                	andi	a5,a5,15
   10e18:	97ae                	add	a5,a5,a1
   10e1a:	96ae                	add	a3,a3,a1
   10e1c:	0007c803          	lbu	a6,0(a5)
   10e20:	0006c683          	lbu	a3,0(a3)
   10e24:	01474783          	lbu	a5,20(a4) # 10000014 <_RODATA_END_+0xffe0b14>
   10e28:	0207f793          	andi	a5,a5,32
   10e2c:	dfe5                	beqz	a5,10e24 <print_uart_addr+0x2a>
   10e2e:	00d70023          	sb	a3,0(a4)
   10e32:	01474783          	lbu	a5,20(a4)
   10e36:	0207f793          	andi	a5,a5,32
   10e3a:	dfe5                	beqz	a5,10e32 <print_uart_addr+0x38>
   10e3c:	01070023          	sb	a6,0(a4)
   10e40:	3661                	addiw	a2,a2,-8
   10e42:	fd1615e3          	bne	a2,a7,10e0c <print_uart_addr+0x12>
   10e46:	8082                	ret

0000000000010e48 <print_uart_byte>:
   10e48:	00000797          	auipc	a5,0x0
   10e4c:	04078793          	addi	a5,a5,64 # 10e88 <bin_to_hex_table>
   10e50:	00f57713          	andi	a4,a0,15
   10e54:	8111                	srli	a0,a0,0x4
   10e56:	973e                	add	a4,a4,a5
   10e58:	97aa                	add	a5,a5,a0
   10e5a:	0007c603          	lbu	a2,0(a5)
   10e5e:	00074683          	lbu	a3,0(a4)
   10e62:	10000737          	lui	a4,0x10000
   10e66:	01474783          	lbu	a5,20(a4) # 10000014 <_RODATA_END_+0xffe0b14>
   10e6a:	0207f793          	andi	a5,a5,32
   10e6e:	dfe5                	beqz	a5,10e66 <print_uart_byte+0x1e>
   10e70:	00c70023          	sb	a2,0(a4)
   10e74:	10000737          	lui	a4,0x10000
   10e78:	01474783          	lbu	a5,20(a4) # 10000014 <_RODATA_END_+0xffe0b14>
   10e7c:	0207f793          	andi	a5,a5,32
   10e80:	dfe5                	beqz	a5,10e78 <print_uart_byte+0x30>
   10e82:	00d70023          	sb	a3,0(a4)
   10e86:	8082                	ret

0000000000010e88 <bin_to_hex_table>:
   10e88:	3130                	fld	fa2,96(a0)
   10e8a:	3332                	fld	ft6,296(sp)
   10e8c:	3534                	fld	fa3,104(a0)
   10e8e:	3736                	fld	fa4,360(sp)
   10e90:	3938                	fld	fa4,112(a0)
   10e92:	4241                	li	tp,16
   10e94:	46454443          	.4byte	0x46454443
   10e98:	3a434347          	fmsub.d	ft6,ft6,ft4,ft7,rmm
   10e9c:	2820                	fld	fs0,80(s0)
   10e9e:	31202967          	.4byte	0x31202967
   10ea2:	2e32                	fld	ft8,264(sp)
   10ea4:	2e32                	fld	ft8,264(sp)
   10ea6:	0030                	addi	a2,sp,8
   10ea8:	3441                	addiw	s0,s0,-16 # aff0 <_entry-0x5010>
   10eaa:	0000                	unimp
   10eac:	7200                	ld	s0,32(a2)
   10eae:	7369                	lui	t1,0xffffa
   10eb0:	01007663          	bgeu	zero,a6,10ebc <bin_to_hex_table+0x34>
   10eb4:	002a                	c.slli	zero,0xa
   10eb6:	0000                	unimp
   10eb8:	1004                	addi	s1,sp,32
   10eba:	7205                	lui	tp,0xfffe1
   10ebc:	3676                	fld	fa2,376(sp)
   10ebe:	6934                	ld	a3,80(a0)
   10ec0:	7032                	.2byte	0x7032
   10ec2:	5f30                	lw	a2,120(a4)
   10ec4:	326d                	addiw	tp,tp,-5 # fffffffffffe0ffb <_RODATA_END_+0xfffffffffffc1afb>
   10ec6:	3070                	fld	fa2,224(s0)
   10ec8:	615f 7032 5f30      	.byte	0x5f, 0x61, 0x32, 0x70, 0x30, 0x5f
   10ece:	3266                	fld	ft4,120(sp)
   10ed0:	3070                	fld	fa2,224(s0)
   10ed2:	645f 7032 5f30      	.byte	0x5f, 0x64, 0x32, 0x70, 0x30, 0x5f
   10ed8:	30703263          	.4byte	0x30703263
	...

0000000000010ede <write_reg>:
   10ede:	c10c                	sw	a1,0(a0)
   10ee0:	8082                	ret

0000000000010ee2 <read_reg>:
   10ee2:	4108                	lw	a0,0(a0)
   10ee4:	8082                	ret

0000000000010ee6 <spi_init>:
   10ee6:	00000517          	auipc	a0,0x0
   10eea:	1101                	addi	sp,sp,-32
   10eec:	19250513          	addi	a0,a0,402 # 11078 <spi_write_bytes+0x84>
   10ef0:	ec06                	sd	ra,24(sp)
   10ef2:	e822                	sd	s0,16(sp)
   10ef4:	e426                	sd	s1,8(sp)
   10ef6:	e73ff0ef          	jal	ra,10d68 <print_uart>
   10efa:	200007b7          	lui	a5,0x20000
   10efe:	4729                	li	a4,10
   10f00:	c3b8                	sw	a4,64(a5)
   10f02:	47a9                	li	a5,10
   10f04:	0001                	nop
   10f06:	37fd                	addiw	a5,a5,-1 # 1fffffff <_RODATA_END_+0x1ffe0aff>
   10f08:	fff5                	bnez	a5,10f04 <spi_init+0x1e>
   10f0a:	20000437          	lui	s0,0x20000
   10f0e:	10400793          	li	a5,260
   10f12:	d03c                	sw	a5,96(s0)
   10f14:	5064                	lw	s1,100(s0)
   10f16:	00000517          	auipc	a0,0x0
   10f1a:	17250513          	addi	a0,a0,370 # 11088 <spi_write_bytes+0x94>
   10f1e:	e4bff0ef          	jal	ra,10d68 <print_uart>
   10f22:	2481                	sext.w	s1,s1
   10f24:	02049513          	slli	a0,s1,0x20
   10f28:	9101                	srli	a0,a0,0x20
   10f2a:	ed1ff0ef          	jal	ra,10dfa <print_uart_addr>
   10f2e:	00000517          	auipc	a0,0x0
   10f32:	17a50513          	addi	a0,a0,378 # 110a8 <spi_write_bytes+0xb4>
   10f36:	e33ff0ef          	jal	ra,10d68 <print_uart>
   10f3a:	16600793          	li	a5,358
   10f3e:	d03c                	sw	a5,96(s0)
   10f40:	5064                	lw	s1,100(s0)
   10f42:	00000517          	auipc	a0,0x0
   10f46:	14650513          	addi	a0,a0,326 # 11088 <spi_write_bytes+0x94>
   10f4a:	e1fff0ef          	jal	ra,10d68 <print_uart>
   10f4e:	2481                	sext.w	s1,s1
   10f50:	02049513          	slli	a0,s1,0x20
   10f54:	9101                	srli	a0,a0,0x20
   10f56:	ea5ff0ef          	jal	ra,10dfa <print_uart_addr>
   10f5a:	00000517          	auipc	a0,0x0
   10f5e:	14e50513          	addi	a0,a0,334 # 110a8 <spi_write_bytes+0xb4>
   10f62:	e07ff0ef          	jal	ra,10d68 <print_uart>
   10f66:	4799                	li	a5,6
   10f68:	d03c                	sw	a5,96(s0)
   10f6a:	6442                	ld	s0,16(sp)
   10f6c:	60e2                	ld	ra,24(sp)
   10f6e:	64a2                	ld	s1,8(sp)
   10f70:	00000517          	auipc	a0,0x0
   10f74:	12850513          	addi	a0,a0,296 # 11098 <spi_write_bytes+0xa4>
   10f78:	6105                	addi	sp,sp,32
   10f7a:	b3fd                	j	10d68 <print_uart>

0000000000010f7c <spi_txrx>:
   10f7c:	1101                	addi	sp,sp,-32
   10f7e:	200007b7          	lui	a5,0x20000
   10f82:	ec06                	sd	ra,24(sp)
   10f84:	e822                	sd	s0,16(sp)
   10f86:	e426                	sd	s1,8(sp)
   10f88:	5779                	li	a4,-2
   10f8a:	dbb8                	sw	a4,112(a5)
   10f8c:	d7a8                	sw	a0,104(a5)
   10f8e:	06400793          	li	a5,100
   10f92:	0001                	nop
   10f94:	37fd                	addiw	a5,a5,-1 # 1fffffff <_RODATA_END_+0x1ffe0aff>
   10f96:	fff5                	bnez	a5,10f92 <spi_txrx+0x16>
   10f98:	200007b7          	lui	a5,0x20000
   10f9c:	10600713          	li	a4,262
   10fa0:	d3b8                	sw	a4,96(a5)
   10fa2:	20000437          	lui	s0,0x20000
   10fa6:	507c                	lw	a5,100(s0)
   10fa8:	8b85                	andi	a5,a5,1
   10faa:	fff5                	bnez	a5,10fa6 <spi_txrx+0x2a>
   10fac:	5464                	lw	s1,108(s0)
   10fae:	507c                	lw	a5,100(s0)
   10fb0:	2481                	sext.w	s1,s1
   10fb2:	8b85                	andi	a5,a5,1
   10fb4:	cf91                	beqz	a5,10fd0 <spi_txrx+0x54>
   10fb6:	60e2                	ld	ra,24(sp)
   10fb8:	6442                	ld	s0,16(sp)
   10fba:	200007b7          	lui	a5,0x20000
   10fbe:	577d                	li	a4,-1
   10fc0:	dbb8                	sw	a4,112(a5)
   10fc2:	4719                	li	a4,6
   10fc4:	d3b8                	sw	a4,96(a5)
   10fc6:	0ff4f513          	zext.b	a0,s1
   10fca:	64a2                	ld	s1,8(sp)
   10fcc:	6105                	addi	sp,sp,32
   10fce:	8082                	ret
   10fd0:	00000517          	auipc	a0,0x0
   10fd4:	0e050513          	addi	a0,a0,224 # 110b0 <spi_write_bytes+0xbc>
   10fd8:	d91ff0ef          	jal	ra,10d68 <print_uart>
   10fdc:	5068                	lw	a0,100(s0)
   10fde:	1502                	slli	a0,a0,0x20
   10fe0:	9101                	srli	a0,a0,0x20
   10fe2:	e19ff0ef          	jal	ra,10dfa <print_uart_addr>
   10fe6:	00000517          	auipc	a0,0x0
   10fea:	0c250513          	addi	a0,a0,194 # 110a8 <spi_write_bytes+0xb4>
   10fee:	d7bff0ef          	jal	ra,10d68 <print_uart>
   10ff2:	b7d1                	j	10fb6 <spi_txrx+0x3a>

0000000000010ff4 <spi_write_bytes>:
   10ff4:	10000793          	li	a5,256
   10ff8:	06b7ed63          	bltu	a5,a1,11072 <spi_write_bytes+0x7e>
   10ffc:	200007b7          	lui	a5,0x20000
   11000:	5779                	li	a4,-2
   11002:	dbb8                	sw	a4,112(a5)
   11004:	c5ad                	beqz	a1,1106e <spi_write_bytes+0x7a>
   11006:	02059713          	slli	a4,a1,0x20
   1100a:	9301                	srli	a4,a4,0x20
   1100c:	00e505b3          	add	a1,a0,a4
   11010:	200006b7          	lui	a3,0x20000
   11014:	00054783          	lbu	a5,0(a0)
   11018:	0505                	addi	a0,a0,1
   1101a:	d6bc                	sw	a5,104(a3)
   1101c:	feb51ce3          	bne	a0,a1,11014 <spi_write_bytes+0x20>
   11020:	03200793          	li	a5,50
   11024:	0001                	nop
   11026:	37fd                	addiw	a5,a5,-1 # 1fffffff <_RODATA_END_+0x1ffe0aff>
   11028:	fff5                	bnez	a5,11024 <spi_write_bytes+0x30>
   1102a:	10600693          	li	a3,262
   1102e:	200007b7          	lui	a5,0x20000
   11032:	d3b4                	sw	a3,96(a5)
   11034:	200006b7          	lui	a3,0x20000
   11038:	52fc                	lw	a5,100(a3)
   1103a:	8b85                	andi	a5,a5,1
   1103c:	fff5                	bnez	a5,11038 <spi_write_bytes+0x44>
   1103e:	9732                	add	a4,a4,a2
   11040:	200006b7          	lui	a3,0x20000
   11044:	200005b7          	lui	a1,0x20000
   11048:	00c70b63          	beq	a4,a2,1105e <spi_write_bytes+0x6a>
   1104c:	52fc                	lw	a5,100(a3)
   1104e:	8b85                	andi	a5,a5,1
   11050:	ffe5                	bnez	a5,11048 <spi_write_bytes+0x54>
   11052:	55fc                	lw	a5,108(a1)
   11054:	0605                	addi	a2,a2,1
   11056:	fef60fa3          	sb	a5,-1(a2)
   1105a:	fec719e3          	bne	a4,a2,1104c <spi_write_bytes+0x58>
   1105e:	200007b7          	lui	a5,0x20000
   11062:	577d                	li	a4,-1
   11064:	dbb8                	sw	a4,112(a5)
   11066:	4719                	li	a4,6
   11068:	d3b8                	sw	a4,96(a5)
   1106a:	4501                	li	a0,0
   1106c:	8082                	ret
   1106e:	4701                	li	a4,0
   11070:	bf45                	j	11020 <spi_write_bytes+0x2c>
   11072:	557d                	li	a0,-1
   11074:	8082                	ret
   11076:	0000                	unimp
   11078:	6e69                	lui	t3,0x1a
   1107a:	7469                	lui	s0,0xffffa
   1107c:	5320                	lw	s0,96(a4)
   1107e:	4950                	lw	a2,20(a0)
   11080:	0a0d                	addi	s4,s4,3
   11082:	0000                	unimp
   11084:	0000                	unimp
   11086:	0000                	unimp
   11088:	74617473          	csrrci	s0,0x746,2
   1108c:	7375                	lui	t1,0xffffd
   1108e:	203a                	fld	ft0,392(sp)
   11090:	7830                	ld	a2,112(s0)
   11092:	0000                	unimp
   11094:	0000                	unimp
   11096:	0000                	unimp
   11098:	20495053          	.4byte	0x20495053
   1109c:	6e69                	lui	t3,0x1a
   1109e:	7469                	lui	s0,0xffffa
   110a0:	6169                	addi	sp,sp,208
   110a2:	696c                	ld	a1,208(a0)
   110a4:	657a                	ld	a0,408(sp)
   110a6:	2164                	fld	fs1,192(a0)
   110a8:	0a0d                	addi	s4,s4,3
   110aa:	0000                	unimp
   110ac:	0000                	unimp
   110ae:	0000                	unimp
   110b0:	7872                	ld	a6,312(sp)
   110b2:	6620                	ld	s0,72(a2)
   110b4:	6669                	lui	a2,0x1a
   110b6:	6f6e206f          	j	f37ac <_RODATA_END_+0xd42ac>
   110ba:	2074                	fld	fa3,192(s0)
   110bc:	6d65                	lui	s10,0x19
   110be:	7470                	ld	a2,232(s0)
   110c0:	3f79                	addiw	t5,t5,-2 # 19ffe <base+0x523e>
   110c2:	4100203f 00000034 	.8byte	0x344100203f
   110ca:	6972                	ld	s2,280(sp)
   110cc:	00766373          	csrrsi	t1,0x7,12
   110d0:	2a01                	sext.w	s4,s4
   110d2:	0000                	unimp
   110d4:	0400                	addi	s0,sp,512
   110d6:	0510                	addi	a2,sp,640
   110d8:	7672                	ld	a2,312(sp)
   110da:	3436                	fld	fs0,360(sp)
   110dc:	3269                	addiw	tp,tp,-6 # fffffffffffffffa <_RODATA_END_+0xfffffffffffe0afa>
   110de:	3070                	fld	fa2,224(s0)
   110e0:	6d5f 7032 5f30      	.byte	0x5f, 0x6d, 0x32, 0x70, 0x30, 0x5f
   110e6:	3261                	addiw	tp,tp,-8 # fffffffffffffff8 <_RODATA_END_+0xfffffffffffe0af8>
   110e8:	3070                	fld	fa2,224(s0)
   110ea:	665f 7032 5f30      	.byte	0x5f, 0x66, 0x32, 0x70, 0x30, 0x5f
   110f0:	3264                	fld	fs1,224(a2)
   110f2:	3070                	fld	fa2,224(s0)
   110f4:	635f 7032 0030      	.byte	0x5f, 0x63, 0x32, 0x70, 0x30, 0x00

00000000000110fa <sd_dummy>:
   110fa:	0ff00513          	li	a0,255
   110fe:	bdbd                	j	10f7c <spi_txrx>

0000000000011100 <sd_cmd>:
   11100:	1101                	addi	sp,sp,-32
   11102:	e04a                	sd	s2,0(sp)
   11104:	892a                	mv	s2,a0
   11106:	0ff00513          	li	a0,255
   1110a:	ec06                	sd	ra,24(sp)
   1110c:	e822                	sd	s0,16(sp)
   1110e:	e426                	sd	s1,8(sp)
   11110:	842e                	mv	s0,a1
   11112:	84b2                	mv	s1,a2
   11114:	e69ff0ef          	jal	ra,10f7c <spi_txrx>
   11118:	04096513          	ori	a0,s2,64
   1111c:	e61ff0ef          	jal	ra,10f7c <spi_txrx>
   11120:	0184551b          	srliw	a0,s0,0x18
   11124:	e59ff0ef          	jal	ra,10f7c <spi_txrx>
   11128:	0104551b          	srliw	a0,s0,0x10
   1112c:	0ff57513          	zext.b	a0,a0
   11130:	e4dff0ef          	jal	ra,10f7c <spi_txrx>
   11134:	0084551b          	srliw	a0,s0,0x8
   11138:	0ff57513          	zext.b	a0,a0
   1113c:	e41ff0ef          	jal	ra,10f7c <spi_txrx>
   11140:	0ff47513          	zext.b	a0,s0
   11144:	e39ff0ef          	jal	ra,10f7c <spi_txrx>
   11148:	8526                	mv	a0,s1
   1114a:	e33ff0ef          	jal	ra,10f7c <spi_txrx>
   1114e:	06400413          	li	s0,100
   11152:	a011                	j	11156 <sd_cmd+0x56>
   11154:	cc01                	beqz	s0,1116c <sd_cmd+0x6c>
   11156:	0ff00513          	li	a0,255
   1115a:	e23ff0ef          	jal	ra,10f7c <spi_txrx>
   1115e:	0185179b          	slliw	a5,a0,0x18
   11162:	4187d79b          	sraiw	a5,a5,0x18
   11166:	147d                	addi	s0,s0,-1 # ffffffffffff9fff <_RODATA_END_+0xfffffffffffdaaff>
   11168:	fe07c6e3          	bltz	a5,11154 <sd_cmd+0x54>
   1116c:	60e2                	ld	ra,24(sp)
   1116e:	6442                	ld	s0,16(sp)
   11170:	64a2                	ld	s1,8(sp)
   11172:	6902                	ld	s2,0(sp)
   11174:	6105                	addi	sp,sp,32
   11176:	8082                	ret

0000000000011178 <print_status>:
   11178:	1101                	addi	sp,sp,-32
   1117a:	e426                	sd	s1,8(sp)
   1117c:	84aa                	mv	s1,a0
   1117e:	00000517          	auipc	a0,0x0
   11182:	4c250513          	addi	a0,a0,1218 # 11640 <sd_copy+0x14e>
   11186:	ec06                	sd	ra,24(sp)
   11188:	e822                	sd	s0,16(sp)
   1118a:	842e                	mv	s0,a1
   1118c:	bddff0ef          	jal	ra,10d68 <print_uart>
   11190:	8526                	mv	a0,s1
   11192:	bd7ff0ef          	jal	ra,10d68 <print_uart>
   11196:	00000517          	auipc	a0,0x0
   1119a:	4ba50513          	addi	a0,a0,1210 # 11650 <sd_copy+0x15e>
   1119e:	bcbff0ef          	jal	ra,10d68 <print_uart>
   111a2:	8522                	mv	a0,s0
   111a4:	ca5ff0ef          	jal	ra,10e48 <print_uart_byte>
   111a8:	6442                	ld	s0,16(sp)
   111aa:	60e2                	ld	ra,24(sp)
   111ac:	64a2                	ld	s1,8(sp)
   111ae:	00000517          	auipc	a0,0x0
   111b2:	efa50513          	addi	a0,a0,-262 # 110a8 <spi_write_bytes+0xb4>
   111b6:	6105                	addi	sp,sp,32
   111b8:	be45                	j	10d68 <print_uart>

00000000000111ba <sd_cmd0>:
   111ba:	1101                	addi	sp,sp,-32
   111bc:	e426                	sd	s1,8(sp)
   111be:	6489                	lui	s1,0x2
   111c0:	e04a                	sd	s2,0(sp)
   111c2:	ec06                	sd	ra,24(sp)
   111c4:	e822                	sd	s0,16(sp)
   111c6:	71048493          	addi	s1,s1,1808 # 2710 <_entry-0xd8f0>
   111ca:	4905                	li	s2,1
   111cc:	09500613          	li	a2,149
   111d0:	4581                	li	a1,0
   111d2:	4501                	li	a0,0
   111d4:	f2dff0ef          	jal	ra,11100 <sd_cmd>
   111d8:	842a                	mv	s0,a0
   111da:	34fd                	addiw	s1,s1,-1
   111dc:	0ff00513          	li	a0,255
   111e0:	d9dff0ef          	jal	ra,10f7c <spi_txrx>
   111e4:	c4a9                	beqz	s1,1122e <sd_cmd0+0x74>
   111e6:	ff2413e3          	bne	s0,s2,111cc <sd_cmd0+0x12>
   111ea:	00000517          	auipc	a0,0x0
   111ee:	45650513          	addi	a0,a0,1110 # 11640 <sd_copy+0x14e>
   111f2:	b77ff0ef          	jal	ra,10d68 <print_uart>
   111f6:	00000517          	auipc	a0,0x0
   111fa:	46a50513          	addi	a0,a0,1130 # 11660 <sd_copy+0x16e>
   111fe:	b6bff0ef          	jal	ra,10d68 <print_uart>
   11202:	00000517          	auipc	a0,0x0
   11206:	44e50513          	addi	a0,a0,1102 # 11650 <sd_copy+0x15e>
   1120a:	b5fff0ef          	jal	ra,10d68 <print_uart>
   1120e:	4505                	li	a0,1
   11210:	c39ff0ef          	jal	ra,10e48 <print_uart_byte>
   11214:	00000517          	auipc	a0,0x0
   11218:	e9450513          	addi	a0,a0,-364 # 110a8 <spi_write_bytes+0xb4>
   1121c:	b4dff0ef          	jal	ra,10d68 <print_uart>
   11220:	60e2                	ld	ra,24(sp)
   11222:	6442                	ld	s0,16(sp)
   11224:	64a2                	ld	s1,8(sp)
   11226:	6902                	ld	s2,0(sp)
   11228:	4505                	li	a0,1
   1122a:	6105                	addi	sp,sp,32
   1122c:	8082                	ret
   1122e:	60e2                	ld	ra,24(sp)
   11230:	6442                	ld	s0,16(sp)
   11232:	64a2                	ld	s1,8(sp)
   11234:	6902                	ld	s2,0(sp)
   11236:	4501                	li	a0,0
   11238:	6105                	addi	sp,sp,32
   1123a:	8082                	ret

000000000001123c <sd_cmd8>:
   1123c:	1101                	addi	sp,sp,-32
   1123e:	08700613          	li	a2,135
   11242:	1aa00593          	li	a1,426
   11246:	4521                	li	a0,8
   11248:	ec06                	sd	ra,24(sp)
   1124a:	e822                	sd	s0,16(sp)
   1124c:	e426                	sd	s1,8(sp)
   1124e:	e04a                	sd	s2,0(sp)
   11250:	eb1ff0ef          	jal	ra,11100 <sd_cmd>
   11254:	842a                	mv	s0,a0
   11256:	0ff00513          	li	a0,255
   1125a:	d23ff0ef          	jal	ra,10f7c <spi_txrx>
   1125e:	0ff00513          	li	a0,255
   11262:	d1bff0ef          	jal	ra,10f7c <spi_txrx>
   11266:	0ff00513          	li	a0,255
   1126a:	d13ff0ef          	jal	ra,10f7c <spi_txrx>
   1126e:	84aa                	mv	s1,a0
   11270:	0ff00513          	li	a0,255
   11274:	d09ff0ef          	jal	ra,10f7c <spi_txrx>
   11278:	892a                	mv	s2,a0
   1127a:	0ff00513          	li	a0,255
   1127e:	cffff0ef          	jal	ra,10f7c <spi_txrx>
   11282:	0ff00513          	li	a0,255
   11286:	cf7ff0ef          	jal	ra,10f7c <spi_txrx>
   1128a:	4785                	li	a5,1
   1128c:	4501                	li	a0,0
   1128e:	00f40863          	beq	s0,a5,1129e <sd_cmd8+0x62>
   11292:	60e2                	ld	ra,24(sp)
   11294:	6442                	ld	s0,16(sp)
   11296:	64a2                	ld	s1,8(sp)
   11298:	6902                	ld	s2,0(sp)
   1129a:	6105                	addi	sp,sp,32
   1129c:	8082                	ret
   1129e:	00f4f793          	andi	a5,s1,15
   112a2:	fe8798e3          	bne	a5,s0,11292 <sd_cmd8+0x56>
   112a6:	60e2                	ld	ra,24(sp)
   112a8:	6442                	ld	s0,16(sp)
   112aa:	0009079b          	sext.w	a5,s2
   112ae:	f5678793          	addi	a5,a5,-170 # 1fffff56 <_RODATA_END_+0x1ffe0a56>
   112b2:	64a2                	ld	s1,8(sp)
   112b4:	6902                	ld	s2,0(sp)
   112b6:	0017b513          	seqz	a0,a5
   112ba:	6105                	addi	sp,sp,32
   112bc:	8082                	ret

00000000000112be <sd_cmd55>:
   112be:	1141                	addi	sp,sp,-16
   112c0:	06500613          	li	a2,101
   112c4:	4581                	li	a1,0
   112c6:	03700513          	li	a0,55
   112ca:	e406                	sd	ra,8(sp)
   112cc:	e022                	sd	s0,0(sp)
   112ce:	e33ff0ef          	jal	ra,11100 <sd_cmd>
   112d2:	842a                	mv	s0,a0
   112d4:	0ff00513          	li	a0,255
   112d8:	ca5ff0ef          	jal	ra,10f7c <spi_txrx>
   112dc:	00000517          	auipc	a0,0x0
   112e0:	36450513          	addi	a0,a0,868 # 11640 <sd_copy+0x14e>
   112e4:	a85ff0ef          	jal	ra,10d68 <print_uart>
   112e8:	00000517          	auipc	a0,0x0
   112ec:	38050513          	addi	a0,a0,896 # 11668 <sd_copy+0x176>
   112f0:	a79ff0ef          	jal	ra,10d68 <print_uart>
   112f4:	00000517          	auipc	a0,0x0
   112f8:	35c50513          	addi	a0,a0,860 # 11650 <sd_copy+0x15e>
   112fc:	a6dff0ef          	jal	ra,10d68 <print_uart>
   11300:	8522                	mv	a0,s0
   11302:	b47ff0ef          	jal	ra,10e48 <print_uart_byte>
   11306:	00000517          	auipc	a0,0x0
   1130a:	da250513          	addi	a0,a0,-606 # 110a8 <spi_write_bytes+0xb4>
   1130e:	a5bff0ef          	jal	ra,10d68 <print_uart>
   11312:	60a2                	ld	ra,8(sp)
   11314:	0004051b          	sext.w	a0,s0
   11318:	6402                	ld	s0,0(sp)
   1131a:	157d                	addi	a0,a0,-1
   1131c:	00153513          	seqz	a0,a0
   11320:	0141                	addi	sp,sp,16
   11322:	8082                	ret

0000000000011324 <sd_acmd41>:
   11324:	1101                	addi	sp,sp,-32
   11326:	e426                	sd	s1,8(sp)
   11328:	ec06                	sd	ra,24(sp)
   1132a:	e822                	sd	s0,16(sp)
   1132c:	4485                	li	s1,1
   1132e:	06500613          	li	a2,101
   11332:	4581                	li	a1,0
   11334:	03700513          	li	a0,55
   11338:	dc9ff0ef          	jal	ra,11100 <sd_cmd>
   1133c:	842a                	mv	s0,a0
   1133e:	0ff00513          	li	a0,255
   11342:	c3bff0ef          	jal	ra,10f7c <spi_txrx>
   11346:	00000517          	auipc	a0,0x0
   1134a:	2fa50513          	addi	a0,a0,762 # 11640 <sd_copy+0x14e>
   1134e:	a1bff0ef          	jal	ra,10d68 <print_uart>
   11352:	00000517          	auipc	a0,0x0
   11356:	31650513          	addi	a0,a0,790 # 11668 <sd_copy+0x176>
   1135a:	a0fff0ef          	jal	ra,10d68 <print_uart>
   1135e:	00000517          	auipc	a0,0x0
   11362:	2f250513          	addi	a0,a0,754 # 11650 <sd_copy+0x15e>
   11366:	a03ff0ef          	jal	ra,10d68 <print_uart>
   1136a:	8522                	mv	a0,s0
   1136c:	addff0ef          	jal	ra,10e48 <print_uart_byte>
   11370:	00000517          	auipc	a0,0x0
   11374:	d3850513          	addi	a0,a0,-712 # 110a8 <spi_write_bytes+0xb4>
   11378:	9f1ff0ef          	jal	ra,10d68 <print_uart>
   1137c:	07700613          	li	a2,119
   11380:	400005b7          	lui	a1,0x40000
   11384:	02900513          	li	a0,41
   11388:	d79ff0ef          	jal	ra,11100 <sd_cmd>
   1138c:	842a                	mv	s0,a0
   1138e:	00000517          	auipc	a0,0x0
   11392:	2b250513          	addi	a0,a0,690 # 11640 <sd_copy+0x14e>
   11396:	9d3ff0ef          	jal	ra,10d68 <print_uart>
   1139a:	00000517          	auipc	a0,0x0
   1139e:	2d650513          	addi	a0,a0,726 # 11670 <sd_copy+0x17e>
   113a2:	9c7ff0ef          	jal	ra,10d68 <print_uart>
   113a6:	00000517          	auipc	a0,0x0
   113aa:	2aa50513          	addi	a0,a0,682 # 11650 <sd_copy+0x15e>
   113ae:	9bbff0ef          	jal	ra,10d68 <print_uart>
   113b2:	8522                	mv	a0,s0
   113b4:	a95ff0ef          	jal	ra,10e48 <print_uart_byte>
   113b8:	00000517          	auipc	a0,0x0
   113bc:	cf050513          	addi	a0,a0,-784 # 110a8 <spi_write_bytes+0xb4>
   113c0:	9a9ff0ef          	jal	ra,10d68 <print_uart>
   113c4:	0ff00513          	li	a0,255
   113c8:	bb5ff0ef          	jal	ra,10f7c <spi_txrx>
   113cc:	f69401e3          	beq	s0,s1,1132e <sd_acmd41+0xa>
   113d0:	60e2                	ld	ra,24(sp)
   113d2:	0004051b          	sext.w	a0,s0
   113d6:	6442                	ld	s0,16(sp)
   113d8:	64a2                	ld	s1,8(sp)
   113da:	00153513          	seqz	a0,a0
   113de:	6105                	addi	sp,sp,32
   113e0:	8082                	ret

00000000000113e2 <init_sd>:
   113e2:	1101                	addi	sp,sp,-32
   113e4:	ec06                	sd	ra,24(sp)
   113e6:	e822                	sd	s0,16(sp)
   113e8:	e426                	sd	s1,8(sp)
   113ea:	e04a                	sd	s2,0(sp)
   113ec:	afbff0ef          	jal	ra,10ee6 <spi_init>
   113f0:	00000517          	auipc	a0,0x0
   113f4:	28850513          	addi	a0,a0,648 # 11678 <sd_copy+0x186>
   113f8:	971ff0ef          	jal	ra,10d68 <print_uart>
   113fc:	4429                	li	s0,10
   113fe:	347d                	addiw	s0,s0,-1
   11400:	0ff00513          	li	a0,255
   11404:	b79ff0ef          	jal	ra,10f7c <spi_txrx>
   11408:	f87d                	bnez	s0,113fe <init_sd+0x1c>
   1140a:	6489                	lui	s1,0x2
   1140c:	71048493          	addi	s1,s1,1808 # 2710 <_entry-0xd8f0>
   11410:	4905                	li	s2,1
   11412:	09500613          	li	a2,149
   11416:	4581                	li	a1,0
   11418:	4501                	li	a0,0
   1141a:	ce7ff0ef          	jal	ra,11100 <sd_cmd>
   1141e:	842a                	mv	s0,a0
   11420:	34fd                	addiw	s1,s1,-1
   11422:	0ff00513          	li	a0,255
   11426:	b57ff0ef          	jal	ra,10f7c <spi_txrx>
   1142a:	c8b9                	beqz	s1,11480 <init_sd+0x9e>
   1142c:	ff2413e3          	bne	s0,s2,11412 <init_sd+0x30>
   11430:	00000517          	auipc	a0,0x0
   11434:	21050513          	addi	a0,a0,528 # 11640 <sd_copy+0x14e>
   11438:	931ff0ef          	jal	ra,10d68 <print_uart>
   1143c:	00000517          	auipc	a0,0x0
   11440:	22450513          	addi	a0,a0,548 # 11660 <sd_copy+0x16e>
   11444:	925ff0ef          	jal	ra,10d68 <print_uart>
   11448:	00000517          	auipc	a0,0x0
   1144c:	20850513          	addi	a0,a0,520 # 11650 <sd_copy+0x15e>
   11450:	919ff0ef          	jal	ra,10d68 <print_uart>
   11454:	4505                	li	a0,1
   11456:	9f3ff0ef          	jal	ra,10e48 <print_uart_byte>
   1145a:	00000517          	auipc	a0,0x0
   1145e:	c4e50513          	addi	a0,a0,-946 # 110a8 <spi_write_bytes+0xb4>
   11462:	907ff0ef          	jal	ra,10d68 <print_uart>
   11466:	dd7ff0ef          	jal	ra,1123c <sd_cmd8>
   1146a:	c115                	beqz	a0,1148e <init_sd+0xac>
   1146c:	eb9ff0ef          	jal	ra,11324 <sd_acmd41>
   11470:	c10d                	beqz	a0,11492 <init_sd+0xb0>
   11472:	4501                	li	a0,0
   11474:	60e2                	ld	ra,24(sp)
   11476:	6442                	ld	s0,16(sp)
   11478:	64a2                	ld	s1,8(sp)
   1147a:	6902                	ld	s2,0(sp)
   1147c:	6105                	addi	sp,sp,32
   1147e:	8082                	ret
   11480:	60e2                	ld	ra,24(sp)
   11482:	6442                	ld	s0,16(sp)
   11484:	64a2                	ld	s1,8(sp)
   11486:	6902                	ld	s2,0(sp)
   11488:	557d                	li	a0,-1
   1148a:	6105                	addi	sp,sp,32
   1148c:	8082                	ret
   1148e:	5579                	li	a0,-2
   11490:	b7d5                	j	11474 <init_sd+0x92>
   11492:	5575                	li	a0,-3
   11494:	b7c5                	j	11474 <init_sd+0x92>

0000000000011496 <crc7>:
   11496:	8de9                	and	a1,a1,a0
   11498:	0075d79b          	srliw	a5,a1,0x7
   1149c:	0045d51b          	srliw	a0,a1,0x4
   114a0:	8d3d                	xor	a0,a0,a5
   114a2:	0ff57513          	zext.b	a0,a0
   114a6:	8d2d                	xor	a0,a0,a1
   114a8:	0045179b          	slliw	a5,a0,0x4
   114ac:	0ff7f793          	zext.b	a5,a5
   114b0:	8d3d                	xor	a0,a0,a5
   114b2:	07f57513          	andi	a0,a0,127
   114b6:	8082                	ret

00000000000114b8 <crc16>:
   114b8:	0085179b          	slliw	a5,a0,0x8
   114bc:	0085551b          	srliw	a0,a0,0x8
   114c0:	8fc9                	or	a5,a5,a0
   114c2:	17c2                	slli	a5,a5,0x30
   114c4:	93c1                	srli	a5,a5,0x30
   114c6:	00f5c533          	xor	a0,a1,a5
   114ca:	0045579b          	srliw	a5,a0,0x4
   114ce:	8bbd                	andi	a5,a5,15
   114d0:	8d3d                	xor	a0,a0,a5
   114d2:	00c5179b          	slliw	a5,a0,0xc
   114d6:	8d3d                	xor	a0,a0,a5
   114d8:	0105171b          	slliw	a4,a0,0x10
   114dc:	0107571b          	srliw	a4,a4,0x10
   114e0:	6789                	lui	a5,0x2
   114e2:	0057171b          	slliw	a4,a4,0x5
   114e6:	1781                	addi	a5,a5,-32 # 1fe0 <_entry-0xe020>
   114e8:	8ff9                	and	a5,a5,a4
   114ea:	8d3d                	xor	a0,a0,a5
   114ec:	1542                	slli	a0,a0,0x30
   114ee:	9141                	srli	a0,a0,0x30
   114f0:	8082                	ret

00000000000114f2 <sd_copy>:
   114f2:	7155                	addi	sp,sp,-208
   114f4:	f94a                	sd	s2,176(sp)
   114f6:	02061913          	slli	s2,a2,0x20
   114fa:	ed56                	sd	s5,152(sp)
   114fc:	e586                	sd	ra,200(sp)
   114fe:	e1a2                	sd	s0,192(sp)
   11500:	fd26                	sd	s1,184(sp)
   11502:	f54e                	sd	s3,168(sp)
   11504:	f152                	sd	s4,160(sp)
   11506:	e95a                	sd	s6,144(sp)
   11508:	e55e                	sd	s7,136(sp)
   1150a:	8aaa                	mv	s5,a0
   1150c:	02095913          	srli	s2,s2,0x20
   11510:	878a                	mv	a5,sp
   11512:	577d                	li	a4,-1
   11514:	e398                	sd	a4,0(a5)
   11516:	0114                	addi	a3,sp,128
   11518:	07a1                	addi	a5,a5,8
   1151a:	fed79de3          	bne	a5,a3,11514 <sd_copy+0x22>
   1151e:	4605                	li	a2,1
   11520:	4549                	li	a0,18
   11522:	bdfff0ef          	jal	ra,11100 <sd_cmd>
   11526:	0e051b63          	bnez	a0,1161c <sd_copy+0x12a>
   1152a:	6b09                	lui	s6,0x2
   1152c:	0fe00413          	li	s0,254
   11530:	1b01                	addi	s6,s6,-32 # 1fe0 <_entry-0xe020>
   11532:	3e800993          	li	s3,1000
   11536:	0ff00513          	li	a0,255
   1153a:	a43ff0ef          	jal	ra,10f7c <spi_txrx>
   1153e:	fe851ce3          	bne	a0,s0,11536 <sd_copy+0x44>
   11542:	8bd6                	mv	s7,s5
   11544:	4a01                	li	s4,0
   11546:	040a8a93          	addi	s5,s5,64
   1154a:	200b8493          	addi	s1,s7,512
   1154e:	865e                	mv	a2,s7
   11550:	04000593          	li	a1,64
   11554:	850a                	mv	a0,sp
   11556:	a9fff0ef          	jal	ra,10ff4 <spi_write_bytes>
   1155a:	86de                	mv	a3,s7
   1155c:	008a171b          	slliw	a4,s4,0x8
   11560:	008a5a1b          	srliw	s4,s4,0x8
   11564:	0006c783          	lbu	a5,0(a3) # 20000000 <_RODATA_END_+0x1ffe0b00>
   11568:	01476733          	or	a4,a4,s4
   1156c:	1742                	slli	a4,a4,0x30
   1156e:	9341                	srli	a4,a4,0x30
   11570:	8fb9                	xor	a5,a5,a4
   11572:	0047d71b          	srliw	a4,a5,0x4
   11576:	8b3d                	andi	a4,a4,15
   11578:	8fb9                	xor	a5,a5,a4
   1157a:	00c7971b          	slliw	a4,a5,0xc
   1157e:	8fb9                	xor	a5,a5,a4
   11580:	0107971b          	slliw	a4,a5,0x10
   11584:	0107571b          	srliw	a4,a4,0x10
   11588:	0057171b          	slliw	a4,a4,0x5
   1158c:	00eb7733          	and	a4,s6,a4
   11590:	8fb9                	xor	a5,a5,a4
   11592:	03079a13          	slli	s4,a5,0x30
   11596:	0685                	addi	a3,a3,1
   11598:	030a5a13          	srli	s4,s4,0x30
   1159c:	fcda90e3          	bne	s5,a3,1155c <sd_copy+0x6a>
   115a0:	040b8b93          	addi	s7,s7,64
   115a4:	040a8a93          	addi	s5,s5,64
   115a8:	fa9b93e3          	bne	s7,s1,1154e <sd_copy+0x5c>
   115ac:	0ff00513          	li	a0,255
   115b0:	9cdff0ef          	jal	ra,10f7c <spi_txrx>
   115b4:	0085149b          	slliw	s1,a0,0x8
   115b8:	14c2                	slli	s1,s1,0x30
   115ba:	0ff00513          	li	a0,255
   115be:	90c1                	srli	s1,s1,0x30
   115c0:	9bdff0ef          	jal	ra,10f7c <spi_txrx>
   115c4:	009567b3          	or	a5,a0,s1
   115c8:	17c2                	slli	a5,a5,0x30
   115ca:	93c1                	srli	a5,a5,0x30
   115cc:	8ade                	mv	s5,s7
   115ce:	03479163          	bne	a5,s4,115f0 <sd_copy+0xfe>
   115d2:	033967b3          	rem	a5,s2,s3
   115d6:	c791                	beqz	a5,115e2 <sd_copy+0xf0>
   115d8:	197d                	addi	s2,s2,-1 # afff <_entry-0x5001>
   115da:	f5204ee3          	bgtz	s2,11536 <sd_copy+0x44>
   115de:	4401                	li	s0,0
   115e0:	a809                	j	115f2 <sd_copy+0x100>
   115e2:	00000517          	auipc	a0,0x0
   115e6:	0ce50513          	addi	a0,a0,206 # 116b0 <sd_copy+0x1be>
   115ea:	f7eff0ef          	jal	ra,10d68 <print_uart>
   115ee:	b7ed                	j	115d8 <sd_copy+0xe6>
   115f0:	5479                	li	s0,-2
   115f2:	4605                	li	a2,1
   115f4:	4581                	li	a1,0
   115f6:	4531                	li	a0,12
   115f8:	b09ff0ef          	jal	ra,11100 <sd_cmd>
   115fc:	0ff00513          	li	a0,255
   11600:	97dff0ef          	jal	ra,10f7c <spi_txrx>
   11604:	60ae                	ld	ra,200(sp)
   11606:	8522                	mv	a0,s0
   11608:	640e                	ld	s0,192(sp)
   1160a:	74ea                	ld	s1,184(sp)
   1160c:	794a                	ld	s2,176(sp)
   1160e:	79aa                	ld	s3,168(sp)
   11610:	7a0a                	ld	s4,160(sp)
   11612:	6aea                	ld	s5,152(sp)
   11614:	6b4a                	ld	s6,144(sp)
   11616:	6baa                	ld	s7,136(sp)
   11618:	6169                	addi	sp,sp,208
   1161a:	8082                	ret
   1161c:	4421                	li	s0,8
   1161e:	347d                	addiw	s0,s0,-1
   11620:	0ff00513          	li	a0,255
   11624:	959ff0ef          	jal	ra,10f7c <spi_txrx>
   11628:	f87d                	bnez	s0,1161e <sd_copy+0x12c>
   1162a:	00000517          	auipc	a0,0x0
   1162e:	06650513          	addi	a0,a0,102 # 11690 <sd_copy+0x19e>
   11632:	f36ff0ef          	jal	ra,10d68 <print_uart>
   11636:	547d                	li	s0,-1
   11638:	b7f1                	j	11604 <sd_copy+0x112>
   1163a:	0000                	unimp
   1163c:	0000                	unimp
   1163e:	0000                	unimp
   11640:	63204453          	.4byte	0x63204453
   11644:	616d6d6f          	jal	s10,e7c5a <_RODATA_END_+0xc875a>
   11648:	646e                	ld	s0,216(sp)
   1164a:	0020                	addi	s0,sp,8
   1164c:	0000                	unimp
   1164e:	0000                	unimp
   11650:	0920                	addi	s0,sp,152
   11652:	6572                	ld	a0,280(sp)
   11654:	6e6f7073          	csrci	0x6e6,30
   11658:	3a206573          	csrrsi	a0,pmpcfg2,0
   1165c:	0020                	addi	s0,sp,8
   1165e:	0000                	unimp
   11660:	30646d63          	bltu	s0,t1,1197a <gpt_find_boot_partition+0x292>
   11664:	0000                	unimp
   11666:	0000                	unimp
   11668:	35646d63          	bltu	s0,s6,119c2 <gpt_find_boot_partition+0x2da>
   1166c:	0035                	c.nop	13
   1166e:	0000                	unimp
   11670:	34646d63          	bltu	s0,t1,119ca <gpt_find_boot_partition+0x2e2>
   11674:	0031                	c.nop	12
   11676:	0000                	unimp
   11678:	6e69                	lui	t3,0x1a
   1167a:	7469                	lui	s0,0xffffa
   1167c:	6169                	addi	sp,sp,208
   1167e:	696c                	ld	a1,208(a0)
   11680:	697a                	ld	s2,408(sp)
   11682:	676e                	ld	a4,216(sp)
   11684:	5320                	lw	s0,96(a4)
   11686:	2e44                	fld	fs1,152(a2)
   11688:	2e2e                	fld	ft8,200(sp)
   1168a:	0d20                	addi	s0,sp,664
   1168c:	000a                	c.slli	zero,0x2
   1168e:	0000                	unimp
   11690:	6c756f63          	bltu	a0,t2,11d6e <TestDDR+0x1a>
   11694:	2064                	fld	fs1,192(s0)
   11696:	6f6e                	ld	t5,216(sp)
   11698:	2074                	fld	fa3,192(s0)
   1169a:	6572                	ld	a0,280(sp)
   1169c:	6461                	lui	s0,0x18
   1169e:	5320                	lw	s0,96(a4)
   116a0:	2044                	fld	fs1,128(s0)
   116a2:	6c62                	ld	s8,24(sp)
   116a4:	0d6b636f          	jal	t1,c777a <_RODATA_END_+0xa827a>
   116a8:	000a                	c.slli	zero,0x2
   116aa:	0000                	unimp
   116ac:	0000                	unimp
   116ae:	0000                	unimp
   116b0:	002e                	c.slli	zero,0xb
   116b2:	3441                	addiw	s0,s0,-16 # 17ff0 <base+0x3230>
   116b4:	0000                	unimp
   116b6:	7200                	ld	s0,32(a2)
   116b8:	7369                	lui	t1,0xffffa
   116ba:	01007663          	bgeu	zero,a6,116c6 <sd_copy+0x1d4>
   116be:	002a                	c.slli	zero,0xa
   116c0:	0000                	unimp
   116c2:	1004                	addi	s1,sp,32
   116c4:	7205                	lui	tp,0xfffe1
   116c6:	3676                	fld	fa2,376(sp)
   116c8:	6934                	ld	a3,80(a0)
   116ca:	7032                	.2byte	0x7032
   116cc:	5f30                	lw	a2,120(a4)
   116ce:	326d                	addiw	tp,tp,-5 # fffffffffffe0ffb <_RODATA_END_+0xfffffffffffc1afb>
   116d0:	3070                	fld	fa2,224(s0)
   116d2:	615f 7032 5f30      	.byte	0x5f, 0x61, 0x32, 0x70, 0x30, 0x5f
   116d8:	3266                	fld	ft4,120(sp)
   116da:	3070                	fld	fa2,224(s0)
   116dc:	645f 7032 5f30      	.byte	0x5f, 0x64, 0x32, 0x70, 0x30, 0x5f
   116e2:	30703263          	.4byte	0x30703263
	...

00000000000116e8 <gpt_find_boot_partition>:
   116e8:	715d                	addi	sp,sp,-80
   116ea:	e0a2                	sd	s0,64(sp)
   116ec:	e062                	sd	s8,0(sp)
   116ee:	e486                	sd	ra,72(sp)
   116f0:	fc26                	sd	s1,56(sp)
   116f2:	f84a                	sd	s2,48(sp)
   116f4:	f44e                	sd	s3,40(sp)
   116f6:	f052                	sd	s4,32(sp)
   116f8:	ec56                	sd	s5,24(sp)
   116fa:	e85a                	sd	s6,16(sp)
   116fc:	e45e                	sd	s7,8(sp)
   116fe:	0880                	addi	s0,sp,80
   11700:	8c2a                	mv	s8,a0
   11702:	ce1ff0ef          	jal	ra,113e2 <init_sd>
   11706:	26051c63          	bnez	a0,1197e <gpt_find_boot_partition+0x296>
   1170a:	00000517          	auipc	a0,0x0
   1170e:	33650513          	addi	a0,a0,822 # 11a40 <gpt_find_boot_partition+0x358>
   11712:	e56ff0ef          	jal	ra,10d68 <print_uart>
   11716:	7101                	addi	sp,sp,-512
   11718:	4605                	li	a2,1
   1171a:	4585                	li	a1,1
   1171c:	850a                	mv	a0,sp
   1171e:	dd5ff0ef          	jal	ra,114f2 <sd_copy>
   11722:	890a                	mv	s2,sp
   11724:	84aa                	mv	s1,a0
   11726:	2c051263          	bnez	a0,119ea <gpt_find_boot_partition+0x302>
   1172a:	00000517          	auipc	a0,0x0
   1172e:	35e50513          	addi	a0,a0,862 # 11a88 <gpt_find_boot_partition+0x3a0>
   11732:	e36ff0ef          	jal	ra,10d68 <print_uart>
   11736:	00000517          	auipc	a0,0x0
   1173a:	37250513          	addi	a0,a0,882 # 11aa8 <gpt_find_boot_partition+0x3c0>
   1173e:	e2aff0ef          	jal	ra,10d68 <print_uart>
   11742:	6502                	ld	a0,0(sp)
   11744:	eb6ff0ef          	jal	ra,10dfa <print_uart_addr>
   11748:	00000517          	auipc	a0,0x0
   1174c:	37050513          	addi	a0,a0,880 # 11ab8 <gpt_find_boot_partition+0x3d0>
   11750:	e18ff0ef          	jal	ra,10d68 <print_uart>
   11754:	4522                	lw	a0,8(sp)
   11756:	e58ff0ef          	jal	ra,10dae <print_uart_int>
   1175a:	00000517          	auipc	a0,0x0
   1175e:	36e50513          	addi	a0,a0,878 # 11ac8 <gpt_find_boot_partition+0x3e0>
   11762:	e06ff0ef          	jal	ra,10d68 <print_uart>
   11766:	4532                	lw	a0,12(sp)
   11768:	e46ff0ef          	jal	ra,10dae <print_uart_int>
   1176c:	00000517          	auipc	a0,0x0
   11770:	36c50513          	addi	a0,a0,876 # 11ad8 <gpt_find_boot_partition+0x3f0>
   11774:	df4ff0ef          	jal	ra,10d68 <print_uart>
   11778:	4542                	lw	a0,16(sp)
   1177a:	e34ff0ef          	jal	ra,10dae <print_uart_int>
   1177e:	00000517          	auipc	a0,0x0
   11782:	36a50513          	addi	a0,a0,874 # 11ae8 <gpt_find_boot_partition+0x400>
   11786:	de2ff0ef          	jal	ra,10d68 <print_uart>
   1178a:	4552                	lw	a0,20(sp)
   1178c:	e22ff0ef          	jal	ra,10dae <print_uart_int>
   11790:	00000517          	auipc	a0,0x0
   11794:	36850513          	addi	a0,a0,872 # 11af8 <gpt_find_boot_partition+0x410>
   11798:	dd0ff0ef          	jal	ra,10d68 <print_uart>
   1179c:	6562                	ld	a0,24(sp)
   1179e:	e5cff0ef          	jal	ra,10dfa <print_uart_addr>
   117a2:	00000517          	auipc	a0,0x0
   117a6:	36e50513          	addi	a0,a0,878 # 11b10 <gpt_find_boot_partition+0x428>
   117aa:	dbeff0ef          	jal	ra,10d68 <print_uart>
   117ae:	7502                	ld	a0,32(sp)
   117b0:	e4aff0ef          	jal	ra,10dfa <print_uart_addr>
   117b4:	00000517          	auipc	a0,0x0
   117b8:	36c50513          	addi	a0,a0,876 # 11b20 <gpt_find_boot_partition+0x438>
   117bc:	dacff0ef          	jal	ra,10d68 <print_uart>
   117c0:	6526                	ld	a0,72(sp)
   117c2:	e38ff0ef          	jal	ra,10dfa <print_uart_addr>
   117c6:	00000517          	auipc	a0,0x0
   117ca:	37a50513          	addi	a0,a0,890 # 11b40 <gpt_find_boot_partition+0x458>
   117ce:	d9aff0ef          	jal	ra,10d68 <print_uart>
   117d2:	4546                	lw	a0,80(sp)
   117d4:	ddaff0ef          	jal	ra,10dae <print_uart_int>
   117d8:	00000517          	auipc	a0,0x0
   117dc:	38850513          	addi	a0,a0,904 # 11b60 <gpt_find_boot_partition+0x478>
   117e0:	d88ff0ef          	jal	ra,10d68 <print_uart>
   117e4:	4556                	lw	a0,84(sp)
   117e6:	dc8ff0ef          	jal	ra,10dae <print_uart_int>
   117ea:	00000517          	auipc	a0,0x0
   117ee:	8be50513          	addi	a0,a0,-1858 # 110a8 <spi_write_bytes+0xb4>
   117f2:	d76ff0ef          	jal	ra,10d68 <print_uart>
   117f6:	04892583          	lw	a1,72(s2)
   117fa:	7101                	addi	sp,sp,-512
   117fc:	4605                	li	a2,1
   117fe:	850a                	mv	a0,sp
   11800:	cf3ff0ef          	jal	ra,114f2 <sd_copy>
   11804:	8b0a                	mv	s6,sp
   11806:	8aaa                	mv	s5,a0
   11808:	1a051a63          	bnez	a0,119bc <gpt_find_boot_partition+0x2d4>
   1180c:	08010913          	addi	s2,sp,128
   11810:	02010993          	addi	s3,sp,32
   11814:	01010a13          	addi	s4,sp,16
   11818:	4b91                	li	s7,4
   1181a:	00000517          	auipc	a0,0x0
   1181e:	36650513          	addi	a0,a0,870 # 11b80 <gpt_find_boot_partition+0x498>
   11822:	d46ff0ef          	jal	ra,10d68 <print_uart>
   11826:	0ffaf513          	zext.b	a0,s5
   1182a:	e1eff0ef          	jal	ra,10e48 <print_uart_byte>
   1182e:	00000517          	auipc	a0,0x0
   11832:	36a50513          	addi	a0,a0,874 # 11b98 <gpt_find_boot_partition+0x4b0>
   11836:	d32ff0ef          	jal	ra,10d68 <print_uart>
   1183a:	f8090493          	addi	s1,s2,-128
   1183e:	0004c503          	lbu	a0,0(s1)
   11842:	0485                	addi	s1,s1,1
   11844:	e04ff0ef          	jal	ra,10e48 <print_uart_byte>
   11848:	ff449be3          	bne	s1,s4,1183e <gpt_find_boot_partition+0x156>
   1184c:	00000517          	auipc	a0,0x0
   11850:	36c50513          	addi	a0,a0,876 # 11bb8 <gpt_find_boot_partition+0x4d0>
   11854:	d14ff0ef          	jal	ra,10d68 <print_uart>
   11858:	84d2                	mv	s1,s4
   1185a:	0004c503          	lbu	a0,0(s1)
   1185e:	0485                	addi	s1,s1,1
   11860:	de8ff0ef          	jal	ra,10e48 <print_uart_byte>
   11864:	ff349be3          	bne	s1,s3,1185a <gpt_find_boot_partition+0x172>
   11868:	00000517          	auipc	a0,0x0
   1186c:	37050513          	addi	a0,a0,880 # 11bd8 <gpt_find_boot_partition+0x4f0>
   11870:	cf8ff0ef          	jal	ra,10d68 <print_uart>
   11874:	0009b503          	ld	a0,0(s3)
   11878:	fb890493          	addi	s1,s2,-72
   1187c:	d7eff0ef          	jal	ra,10dfa <print_uart_addr>
   11880:	00000517          	auipc	a0,0x0
   11884:	36850513          	addi	a0,a0,872 # 11be8 <gpt_find_boot_partition+0x500>
   11888:	ce0ff0ef          	jal	ra,10d68 <print_uart>
   1188c:	0089b503          	ld	a0,8(s3)
   11890:	d6aff0ef          	jal	ra,10dfa <print_uart_addr>
   11894:	00000517          	auipc	a0,0x0
   11898:	36450513          	addi	a0,a0,868 # 11bf8 <gpt_find_boot_partition+0x510>
   1189c:	cccff0ef          	jal	ra,10d68 <print_uart>
   118a0:	0109b503          	ld	a0,16(s3)
   118a4:	d56ff0ef          	jal	ra,10dfa <print_uart_addr>
   118a8:	00000517          	auipc	a0,0x0
   118ac:	36050513          	addi	a0,a0,864 # 11c08 <gpt_find_boot_partition+0x520>
   118b0:	cb8ff0ef          	jal	ra,10d68 <print_uart>
   118b4:	0004c503          	lbu	a0,0(s1)
   118b8:	0485                	addi	s1,s1,1
   118ba:	d8eff0ef          	jal	ra,10e48 <print_uart_byte>
   118be:	ff249be3          	bne	s1,s2,118b4 <gpt_find_boot_partition+0x1cc>
   118c2:	fffff517          	auipc	a0,0xfffff
   118c6:	7e650513          	addi	a0,a0,2022 # 110a8 <spi_write_bytes+0xb4>
   118ca:	2a85                	addiw	s5,s5,1
   118cc:	c9cff0ef          	jal	ra,10d68 <print_uart>
   118d0:	08048913          	addi	s2,s1,128
   118d4:	08098993          	addi	s3,s3,128
   118d8:	080a0a13          	addi	s4,s4,128
   118dc:	f37a9fe3          	bne	s5,s7,1181a <gpt_find_boot_partition+0x132>
   118e0:	00000517          	auipc	a0,0x0
   118e4:	33850513          	addi	a0,a0,824 # 11c18 <gpt_find_boot_partition+0x530>
   118e8:	c80ff0ef          	jal	ra,10d68 <print_uart>
   118ec:	020b3503          	ld	a0,32(s6)
   118f0:	d0aff0ef          	jal	ra,10dfa <print_uart_addr>
   118f4:	00000517          	auipc	a0,0x0
   118f8:	33c50513          	addi	a0,a0,828 # 11c30 <gpt_find_boot_partition+0x548>
   118fc:	c6cff0ef          	jal	ra,10d68 <print_uart>
   11900:	028b3503          	ld	a0,40(s6)
   11904:	cf6ff0ef          	jal	ra,10dfa <print_uart_addr>
   11908:	00000517          	auipc	a0,0x0
   1190c:	34050513          	addi	a0,a0,832 # 11c48 <gpt_find_boot_partition+0x560>
   11910:	c58ff0ef          	jal	ra,10d68 <print_uart>
   11914:	028b3783          	ld	a5,40(s6)
   11918:	020b3503          	ld	a0,32(s6)
   1191c:	0785                	addi	a5,a5,1
   1191e:	40a78533          	sub	a0,a5,a0
   11922:	cd8ff0ef          	jal	ra,10dfa <print_uart_addr>
   11926:	00000517          	auipc	a0,0x0
   1192a:	33250513          	addi	a0,a0,818 # 11c58 <gpt_find_boot_partition+0x570>
   1192e:	c3aff0ef          	jal	ra,10d68 <print_uart>
   11932:	00000517          	auipc	a0,0x0
   11936:	34650513          	addi	a0,a0,838 # 11c78 <gpt_find_boot_partition+0x590>
   1193a:	c2eff0ef          	jal	ra,10d68 <print_uart>
   1193e:	028b3603          	ld	a2,40(s6)
   11942:	020b2583          	lw	a1,32(s6)
   11946:	8562                	mv	a0,s8
   11948:	2605                	addiw	a2,a2,1 # 1a001 <base+0x5241>
   1194a:	9e0d                	subw	a2,a2,a1
   1194c:	ba7ff0ef          	jal	ra,114f2 <sd_copy>
   11950:	84aa                	mv	s1,a0
   11952:	ed15                	bnez	a0,1198e <gpt_find_boot_partition+0x2a6>
   11954:	00000517          	auipc	a0,0x0
   11958:	33c50513          	addi	a0,a0,828 # 11c90 <gpt_find_boot_partition+0x5a8>
   1195c:	c0cff0ef          	jal	ra,10d68 <print_uart>
   11960:	fb040113          	addi	sp,s0,-80
   11964:	60a6                	ld	ra,72(sp)
   11966:	8526                	mv	a0,s1
   11968:	6406                	ld	s0,64(sp)
   1196a:	74e2                	ld	s1,56(sp)
   1196c:	7942                	ld	s2,48(sp)
   1196e:	79a2                	ld	s3,40(sp)
   11970:	7a02                	ld	s4,32(sp)
   11972:	6ae2                	ld	s5,24(sp)
   11974:	6b42                	ld	s6,16(sp)
   11976:	6ba2                	ld	s7,8(sp)
   11978:	6c02                	ld	s8,0(sp)
   1197a:	6161                	addi	sp,sp,80
   1197c:	8082                	ret
   1197e:	00000517          	auipc	a0,0x0
   11982:	09a50513          	addi	a0,a0,154 # 11a18 <gpt_find_boot_partition+0x330>
   11986:	be2ff0ef          	jal	ra,10d68 <print_uart>
   1198a:	54fd                	li	s1,-1
   1198c:	bfd1                	j	11960 <gpt_find_boot_partition+0x278>
   1198e:	00000517          	auipc	a0,0x0
   11992:	0ca50513          	addi	a0,a0,202 # 11a58 <gpt_find_boot_partition+0x370>
   11996:	bd2ff0ef          	jal	ra,10d68 <print_uart>
   1199a:	00000517          	auipc	a0,0x0
   1199e:	0d650513          	addi	a0,a0,214 # 11a70 <gpt_find_boot_partition+0x388>
   119a2:	bc6ff0ef          	jal	ra,10d68 <print_uart>
   119a6:	8526                	mv	a0,s1
   119a8:	c52ff0ef          	jal	ra,10dfa <print_uart_addr>
   119ac:	fffff517          	auipc	a0,0xfffff
   119b0:	6fc50513          	addi	a0,a0,1788 # 110a8 <spi_write_bytes+0xb4>
   119b4:	bb4ff0ef          	jal	ra,10d68 <print_uart>
   119b8:	54f9                	li	s1,-2
   119ba:	b75d                	j	11960 <gpt_find_boot_partition+0x278>
   119bc:	00000517          	auipc	a0,0x0
   119c0:	09c50513          	addi	a0,a0,156 # 11a58 <gpt_find_boot_partition+0x370>
   119c4:	ba4ff0ef          	jal	ra,10d68 <print_uart>
   119c8:	00000517          	auipc	a0,0x0
   119cc:	0a850513          	addi	a0,a0,168 # 11a70 <gpt_find_boot_partition+0x388>
   119d0:	b98ff0ef          	jal	ra,10d68 <print_uart>
   119d4:	8556                	mv	a0,s5
   119d6:	c24ff0ef          	jal	ra,10dfa <print_uart_addr>
   119da:	fffff517          	auipc	a0,0xfffff
   119de:	6ce50513          	addi	a0,a0,1742 # 110a8 <spi_write_bytes+0xb4>
   119e2:	b86ff0ef          	jal	ra,10d68 <print_uart>
   119e6:	54f9                	li	s1,-2
   119e8:	bfa5                	j	11960 <gpt_find_boot_partition+0x278>
   119ea:	00000517          	auipc	a0,0x0
   119ee:	06e50513          	addi	a0,a0,110 # 11a58 <gpt_find_boot_partition+0x370>
   119f2:	b76ff0ef          	jal	ra,10d68 <print_uart>
   119f6:	00000517          	auipc	a0,0x0
   119fa:	07a50513          	addi	a0,a0,122 # 11a70 <gpt_find_boot_partition+0x388>
   119fe:	b6aff0ef          	jal	ra,10d68 <print_uart>
   11a02:	8526                	mv	a0,s1
   11a04:	bf6ff0ef          	jal	ra,10dfa <print_uart_addr>
   11a08:	fffff517          	auipc	a0,0xfffff
   11a0c:	6a050513          	addi	a0,a0,1696 # 110a8 <spi_write_bytes+0xb4>
   11a10:	b58ff0ef          	jal	ra,10d68 <print_uart>
   11a14:	54f9                	li	s1,-2
   11a16:	b7a9                	j	11960 <gpt_find_boot_partition+0x278>
   11a18:	6c756f63          	bltu	a0,t2,120f6 <fe_cswap+0x108>
   11a1c:	2064                	fld	fs1,192(s0)
   11a1e:	6f6e                	ld	t5,216(sp)
   11a20:	2074                	fld	fa3,192(s0)
   11a22:	6e69                	lui	t3,0x1a
   11a24:	7469                	lui	s0,0xffffa
   11a26:	6169                	addi	sp,sp,208
   11a28:	696c                	ld	a1,208(a0)
   11a2a:	657a                	ld	a0,408(sp)
   11a2c:	7320                	ld	s0,96(a4)
   11a2e:	2e64                	fld	fs1,216(a2)
   11a30:	2e2e                	fld	ft8,200(sp)
   11a32:	6520                	ld	s0,72(a0)
   11a34:	6978                	ld	a4,208(a0)
   11a36:	6974                	ld	a3,208(a0)
   11a38:	676e                	ld	a4,216(sp)
   11a3a:	0a0d                	addi	s4,s4,3
   11a3c:	0000                	unimp
   11a3e:	0000                	unimp
   11a40:	69206473          	csrrsi	s0,0x692,0
   11a44:	696e                	ld	s2,216(sp)
   11a46:	6974                	ld	a3,208(a0)
   11a48:	6c61                	lui	s8,0x18
   11a4a:	7a69                	lui	s4,0xffffa
   11a4c:	6465                	lui	s0,0x19
   11a4e:	0d21                	addi	s10,s10,8 # 19008 <base+0x4248>
   11a50:	000a                	c.slli	zero,0x2
   11a52:	0000                	unimp
   11a54:	0000                	unimp
   11a56:	0000                	unimp
   11a58:	63204453          	.4byte	0x63204453
   11a5c:	7261                	lui	tp,0xffff8
   11a5e:	2064                	fld	fs1,192(s0)
   11a60:	6166                	ld	sp,88(sp)
   11a62:	6c69                	lui	s8,0x1a
   11a64:	6465                	lui	s0,0x19
   11a66:	0d21                	addi	s10,s10,8
   11a68:	000a                	c.slli	zero,0x2
   11a6a:	0000                	unimp
   11a6c:	0000                	unimp
   11a6e:	0000                	unimp
   11a70:	63206473          	csrrsi	s0,0x632,0
   11a74:	2079706f          	j	a947a <_RODATA_END_+0x89f7a>
   11a78:	6572                	ld	a0,280(sp)
   11a7a:	7574                	ld	a3,232(a0)
   11a7c:	6e72                	ld	t3,280(sp)
   11a7e:	7620                	ld	s0,104(a2)
   11a80:	6c61                	lui	s8,0x18
   11a82:	6575                	lui	a0,0x1d
   11a84:	203a                	fld	ft0,392(sp)
   11a86:	0000                	unimp
   11a88:	20747067          	.4byte	0x20747067
   11a8c:	6170                	ld	a2,192(a0)
   11a8e:	7472                	ld	s0,312(sp)
   11a90:	7469                	lui	s0,0xffffa
   11a92:	6f69                	lui	t5,0x1a
   11a94:	206e                	fld	ft0,216(sp)
   11a96:	6174                	ld	a3,192(a0)
   11a98:	6c62                	ld	s8,24(sp)
   11a9a:	2065                	.2byte	0x2065
   11a9c:	6568                	ld	a0,200(a0)
   11a9e:	6461                	lui	s0,0x18
   11aa0:	7265                	lui	tp,0xffff9
   11aa2:	003a                	c.slli	zero,0xe
   11aa4:	0000                	unimp
   11aa6:	0000                	unimp
   11aa8:	0a0d                	addi	s4,s4,3 # ffffffffffffa003 <_RODATA_END_+0xfffffffffffdab03>
   11aaa:	7309                	lui	t1,0xfffe2
   11aac:	6769                	lui	a4,0x1a
   11aae:	616e                	ld	sp,216(sp)
   11ab0:	7574                	ld	a3,232(a0)
   11ab2:	6572                	ld	a0,280(sp)
   11ab4:	093a                	slli	s2,s2,0xe
   11ab6:	0000                	unimp
   11ab8:	0a0d                	addi	s4,s4,3
   11aba:	7209                	lui	tp,0xfffe2
   11abc:	7665                	lui	a2,0xffff9
   11abe:	7369                	lui	t1,0xffffa
   11ac0:	6f69                	lui	t5,0x1a
   11ac2:	3a6e                	fld	fs4,248(sp)
   11ac4:	0009                	c.nop	2
   11ac6:	0000                	unimp
   11ac8:	0a0d                	addi	s4,s4,3
   11aca:	7309                	lui	t1,0xfffe2
   11acc:	7a69                	lui	s4,0xffffa
   11ace:	3a65                	addiw	s4,s4,-7 # ffffffffffff9ff9 <_RODATA_END_+0xfffffffffffdaaf9>
   11ad0:	0909                	addi	s2,s2,2
   11ad2:	0000                	unimp
   11ad4:	0000                	unimp
   11ad6:	0000                	unimp
   11ad8:	0a0d                	addi	s4,s4,3
   11ada:	6309                	lui	t1,0x2
   11adc:	6372                	ld	t1,280(sp)
   11ade:	685f 6165 6564      	.byte	0x5f, 0x68, 0x65, 0x61, 0x64, 0x65
   11ae4:	3a72                	fld	fs4,312(sp)
   11ae6:	0009                	c.nop	2
   11ae8:	0a0d                	addi	s4,s4,3
   11aea:	7209                	lui	tp,0xfffe2
   11aec:	7365                	lui	t1,0xffff9
   11aee:	7265                	lui	tp,0xffff9
   11af0:	6576                	ld	a0,344(sp)
   11af2:	3a64                	fld	fs1,240(a2)
   11af4:	0009                	c.nop	2
   11af6:	0000                	unimp
   11af8:	0a0d                	addi	s4,s4,3
   11afa:	6309                	lui	t1,0x2
   11afc:	7275                	lui	tp,0xffffd
   11afe:	6572                	ld	a0,280(sp)
   11b00:	746e                	ld	s0,248(sp)
   11b02:	6c20                	ld	s0,88(s0)
   11b04:	6162                	ld	sp,24(sp)
   11b06:	093a                	slli	s2,s2,0xe
	...
   11b10:	0a0d                	addi	s4,s4,3
   11b12:	6209                	lui	tp,0x2
   11b14:	6361                	lui	t1,0x18
   11b16:	2070756b          	.4byte	0x2070756b
   11b1a:	646c                	ld	a1,200(s0)
   11b1c:	3a61                	addiw	s4,s4,-8
   11b1e:	0009                	c.nop	2
   11b20:	0a0d                	addi	s4,s4,3
   11b22:	7009                	c.lui	zero,0xfffe2
   11b24:	7261                	lui	tp,0xffff8
   11b26:	6974                	ld	a3,208(a0)
   11b28:	6974                	ld	a3,208(a0)
   11b2a:	65206e6f          	jal	t3,1817c <base+0x33bc>
   11b2e:	746e                	ld	s0,248(sp)
   11b30:	6972                	ld	s2,280(sp)
   11b32:	7365                	lui	t1,0xffff9
   11b34:	6c20                	ld	s0,88(s0)
   11b36:	6162                	ld	sp,24(sp)
   11b38:	203a                	fld	ft0,392(sp)
   11b3a:	2020                	fld	fs0,64(s0)
   11b3c:	0009                	c.nop	2
   11b3e:	0000                	unimp
   11b40:	0a0d                	addi	s4,s4,3
   11b42:	6e09                	lui	t3,0x2
   11b44:	6d75                	lui	s10,0x1d
   11b46:	6562                	ld	a0,24(sp)
   11b48:	2072                	fld	ft0,280(sp)
   11b4a:	6170                	ld	a2,192(a0)
   11b4c:	7472                	ld	s0,312(sp)
   11b4e:	7469                	lui	s0,0xffffa
   11b50:	6f69                	lui	t5,0x1a
   11b52:	206e                	fld	ft0,216(sp)
   11b54:	6e65                	lui	t3,0x19
   11b56:	7274                	ld	a3,224(a2)
   11b58:	6569                	lui	a0,0x1a
   11b5a:	00093a73          	csrrc	s4,0x0,s2
   11b5e:	0000                	unimp
   11b60:	0a0d                	addi	s4,s4,3
   11b62:	7309                	lui	t1,0xfffe2
   11b64:	7a69                	lui	s4,0xffffa
   11b66:	2065                	.2byte	0x2065
   11b68:	6170                	ld	a2,192(a0)
   11b6a:	7472                	ld	s0,312(sp)
   11b6c:	7469                	lui	s0,0xffffa
   11b6e:	6f69                	lui	t5,0x1a
   11b70:	206e                	fld	ft0,216(sp)
   11b72:	6e65                	lui	t3,0x19
   11b74:	7274                	ld	a3,224(a2)
   11b76:	6569                	lui	a0,0x1a
   11b78:	20203a73          	csrrc	s4,0x202,zero
   11b7c:	0009                	c.nop	2
   11b7e:	0000                	unimp
   11b80:	20747067          	.4byte	0x20747067
   11b84:	6170                	ld	a2,192(a0)
   11b86:	7472                	ld	s0,312(sp)
   11b88:	7469                	lui	s0,0xffffa
   11b8a:	6f69                	lui	t5,0x1a
   11b8c:	206e                	fld	ft0,216(sp)
   11b8e:	6e65                	lui	t3,0x19
   11b90:	7274                	ld	a3,224(a2)
   11b92:	2079                	.2byte	0x2079
   11b94:	0000                	unimp
   11b96:	0000                	unimp
   11b98:	0a0d                	addi	s4,s4,3 # ffffffffffffa003 <_RODATA_END_+0xfffffffffffdab03>
   11b9a:	7009                	c.lui	zero,0xfffe2
   11b9c:	7261                	lui	tp,0xffff8
   11b9e:	6974                	ld	a3,208(a0)
   11ba0:	6974                	ld	a3,208(a0)
   11ba2:	74206e6f          	jal	t3,182e4 <base+0x3524>
   11ba6:	7079                	c.lui	zero,0xffffe
   11ba8:	2065                	.2byte	0x2065
   11baa:	64697567          	.4byte	0x64697567
   11bae:	093a                	slli	s2,s2,0xe
	...
   11bb8:	0a0d                	addi	s4,s4,3
   11bba:	7009                	c.lui	zero,0xfffe2
   11bbc:	7261                	lui	tp,0xffff8
   11bbe:	6974                	ld	a3,208(a0)
   11bc0:	6974                	ld	a3,208(a0)
   11bc2:	67206e6f          	jal	t3,18234 <base+0x3474>
   11bc6:	6975                	lui	s2,0x1d
   11bc8:	3a64                	fld	fs1,240(a2)
   11bca:	2020                	fld	fs0,64(s0)
   11bcc:	2020                	fld	fs0,64(s0)
   11bce:	0920                	addi	s0,sp,152
	...
   11bd8:	0a0d                	addi	s4,s4,3
   11bda:	6609                	lui	a2,0x2
   11bdc:	7269                	lui	tp,0xffffa
   11bde:	6c207473          	csrrci	s0,0x6c2,0
   11be2:	6162                	ld	sp,24(sp)
   11be4:	093a                	slli	s2,s2,0xe
   11be6:	0000                	unimp
   11be8:	0a0d                	addi	s4,s4,3
   11bea:	6c09                	lui	s8,0x2
   11bec:	7361                	lui	t1,0xffff8
   11bee:	2074                	fld	fa3,192(s0)
   11bf0:	626c                	ld	a1,192(a2)
   11bf2:	3a61                	addiw	s4,s4,-8
   11bf4:	0009                	c.nop	2
   11bf6:	0000                	unimp
   11bf8:	0a0d                	addi	s4,s4,3
   11bfa:	6109                	addi	sp,sp,128
   11bfc:	7474                	ld	a3,232(s0)
   11bfe:	6972                	ld	s2,280(sp)
   11c00:	7562                	ld	a0,56(sp)
   11c02:	6574                	ld	a3,200(a0)
   11c04:	00093a73          	csrrc	s4,0x0,s2
   11c08:	0a0d                	addi	s4,s4,3
   11c0a:	6e09                	lui	t3,0x2
   11c0c:	6d61                	lui	s10,0x18
   11c0e:	3a65                	addiw	s4,s4,-7
   11c10:	0009                	c.nop	2
   11c12:	0000                	unimp
   11c14:	0000                	unimp
   11c16:	0000                	unimp
   11c18:	0a0d                	addi	s4,s4,3
   11c1a:	6164                	ld	s1,192(a0)
   11c1c:	6174                	ld	a3,192(a0)
   11c1e:	665f 7269 7473      	.byte	0x5f, 0x66, 0x69, 0x72, 0x73, 0x74
   11c24:	6c5f 6162 203a      	.byte	0x5f, 0x6c, 0x62, 0x61, 0x3a, 0x20
   11c2a:	0000                	unimp
   11c2c:	0000                	unimp
   11c2e:	0000                	unimp
   11c30:	0a0d                	addi	s4,s4,3
   11c32:	6164                	ld	s1,192(a0)
   11c34:	6174                	ld	a3,192(a0)
   11c36:	6c5f 7361 5f74      	.byte	0x5f, 0x6c, 0x61, 0x73, 0x74, 0x5f
   11c3c:	626c                	ld	a1,192(a2)
   11c3e:	3a61                	addiw	s4,s4,-8
   11c40:	0020                	addi	s0,sp,8
   11c42:	0000                	unimp
   11c44:	0000                	unimp
   11c46:	0000                	unimp
   11c48:	0a0d                	addi	s4,s4,3
   11c4a:	6164                	ld	s1,192(a0)
   11c4c:	6174                	ld	a3,192(a0)
   11c4e:	735f 6569 657a      	.byte	0x5f, 0x73, 0x69, 0x65, 0x7a, 0x65
   11c54:	203a                	fld	ft0,392(sp)
   11c56:	0000                	unimp
   11c58:	0a0d                	addi	s4,s4,3
   11c5a:	2d2d                	addiw	s10,s10,11 # 1800b <base+0x324b>
   11c5c:	2d2d                	addiw	s10,s10,11
   11c5e:	2d2d                	addiw	s10,s10,11
   11c60:	2d2d                	addiw	s10,s10,11
   11c62:	2d2d                	addiw	s10,s10,11
   11c64:	2d2d                	addiw	s10,s10,11
   11c66:	2d2d                	addiw	s10,s10,11
   11c68:	2d2d                	addiw	s10,s10,11
   11c6a:	2d2d                	addiw	s10,s10,11
   11c6c:	2d2d                	addiw	s10,s10,11
   11c6e:	2d2d                	addiw	s10,s10,11
   11c70:	2d2d                	addiw	s10,s10,11
   11c72:	2d2d                	addiw	s10,s10,11
   11c74:	0000                	unimp
   11c76:	0000                	unimp
   11c78:	0a0d                	addi	s4,s4,3
   11c7a:	79706f63          	bltu	zero,s7,12418 <fe_mul+0x1a>
   11c7e:	6e69                	lui	t3,0x1a
   11c80:	6f622067          	.4byte	0x6f622067
   11c84:	6920746f          	jal	s0,19316 <base+0x4556>
   11c88:	616d                	addi	sp,sp,240
   11c8a:	00206567          	.4byte	0x206567
   11c8e:	0000                	unimp
   11c90:	6420                	ld	s0,72(s0)
   11c92:	21656e6f          	jal	t3,67ea8 <_RODATA_END_+0x489a8>
   11c96:	0a0d                	addi	s4,s4,3
   11c98:	4100                	lw	s0,0(a0)
   11c9a:	0034                	addi	a3,sp,8
   11c9c:	0000                	unimp
   11c9e:	6972                	ld	s2,280(sp)
   11ca0:	00766373          	csrrsi	t1,0x7,12
   11ca4:	2a01                	sext.w	s4,s4
   11ca6:	0000                	unimp
   11ca8:	0400                	addi	s0,sp,512
   11caa:	0510                	addi	a2,sp,640
   11cac:	7672                	ld	a2,312(sp)
   11cae:	3436                	fld	fs0,360(sp)
   11cb0:	3269                	addiw	tp,tp,-6 # ffffffffffff9ffa <_RODATA_END_+0xfffffffffffdaafa>
   11cb2:	3070                	fld	fa2,224(s0)
   11cb4:	6d5f 7032 5f30      	.byte	0x5f, 0x6d, 0x32, 0x70, 0x30, 0x5f
   11cba:	3261                	addiw	tp,tp,-8 # fffffffffffffff8 <_RODATA_END_+0xfffffffffffe0af8>
   11cbc:	3070                	fld	fa2,224(s0)
   11cbe:	665f 7032 5f30      	.byte	0x5f, 0x66, 0x32, 0x70, 0x30, 0x5f
   11cc4:	3264                	fld	fs1,224(a2)
   11cc6:	3070                	fld	fa2,224(s0)
   11cc8:	635f 7032 0030      	.byte	0x5f, 0x63, 0x32, 0x70, 0x30, 0x00

0000000000011cce <write_gpio>:
   11cce:	00b50023          	sb	a1,0(a0) # 1a000 <base+0x5240>
   11cd2:	8082                	ret

0000000000011cd4 <read_gpio>:
   11cd4:	00054503          	lbu	a0,0(a0)
   11cd8:	8082                	ret

0000000000011cda <init_gpio>:
   11cda:	400007b7          	lui	a5,0x40000
   11cde:	00078223          	sb	zero,4(a5) # 40000004 <_RODATA_END_+0x3ffe0b04>
   11ce2:	477d                	li	a4,31
   11ce4:	00e78623          	sb	a4,12(a5)
   11ce8:	8082                	ret

0000000000011cea <SetLED_ON_0To3>:
   11cea:	400006b7          	lui	a3,0x40000
   11cee:	0006c703          	lbu	a4,0(a3) # 40000000 <_RODATA_END_+0x3ffe0b00>
   11cf2:	4785                	li	a5,1
   11cf4:	00a797bb          	sllw	a5,a5,a0
   11cf8:	fff7c793          	not	a5,a5
   11cfc:	8f7d                	and	a4,a4,a5
   11cfe:	00e68023          	sb	a4,0(a3)
   11d02:	8082                	ret

0000000000011d04 <setLED_Off_0To3>:
   11d04:	400006b7          	lui	a3,0x40000
   11d08:	0006c783          	lbu	a5,0(a3) # 40000000 <_RODATA_END_+0x3ffe0b00>
   11d0c:	4705                	li	a4,1
   11d0e:	00a7173b          	sllw	a4,a4,a0
   11d12:	8fd9                	or	a5,a5,a4
   11d14:	0ff7f793          	zext.b	a5,a5
   11d18:	00f68023          	sb	a5,0(a3)
   11d1c:	8082                	ret
   11d1e:	3441                	addiw	s0,s0,-16 # ffffffffffff9ff0 <_RODATA_END_+0xfffffffffffdaaf0>
   11d20:	0000                	unimp
   11d22:	7200                	ld	s0,32(a2)
   11d24:	7369                	lui	t1,0xffffa
   11d26:	01007663          	bgeu	zero,a6,11d32 <setLED_Off_0To3+0x2e>
   11d2a:	002a                	c.slli	zero,0xa
   11d2c:	0000                	unimp
   11d2e:	1004                	addi	s1,sp,32
   11d30:	7205                	lui	tp,0xfffe1
   11d32:	3676                	fld	fa2,376(sp)
   11d34:	6934                	ld	a3,80(a0)
   11d36:	7032                	.2byte	0x7032
   11d38:	5f30                	lw	a2,120(a4)
   11d3a:	326d                	addiw	tp,tp,-5 # fffffffffffe0ffb <_RODATA_END_+0xfffffffffffc1afb>
   11d3c:	3070                	fld	fa2,224(s0)
   11d3e:	615f 7032 5f30      	.byte	0x5f, 0x61, 0x32, 0x70, 0x30, 0x5f
   11d44:	3266                	fld	ft4,120(sp)
   11d46:	3070                	fld	fa2,224(s0)
   11d48:	645f 7032 5f30      	.byte	0x5f, 0x64, 0x32, 0x70, 0x30, 0x5f
   11d4e:	30703263          	.4byte	0x30703263
	...

0000000000011d54 <TestDDR>:
   11d54:	c0010113          	addi	sp,sp,-1024
   11d58:	80000eb7          	lui	t4,0x80000
   11d5c:	8e2a                	mv	t3,a0
   11d5e:	40010613          	addi	a2,sp,1024
   11d62:	4501                	li	a0,0
   11d64:	faa00593          	li	a1,-86
   11d68:	0aa00313          	li	t1,170
   11d6c:	fffece93          	not	t4,t4
   11d70:	8872                	mv	a6,t3
   11d72:	888a                	mv	a7,sp
   11d74:	870a                	mv	a4,sp
   11d76:	87f2                	mv	a5,t3
   11d78:	0007c683          	lbu	a3,0(a5)
   11d7c:	0705                	addi	a4,a4,1 # 1a001 <base+0x5241>
   11d7e:	00b78023          	sb	a1,0(a5)
   11d82:	fed70fa3          	sb	a3,-1(a4)
   11d86:	0785                	addi	a5,a5,1
   11d88:	fec718e3          	bne	a4,a2,11d78 <TestDDR+0x24>
   11d8c:	00084783          	lbu	a5,0(a6) # ffffffffffff8000 <_RODATA_END_+0xfffffffffffd8b00>
   11d90:	00678963          	beq	a5,t1,11da2 <TestDDR+0x4e>
   11d94:	400e0e13          	addi	t3,t3,1024 # 1a400 <base+0x5640>
   11d98:	fcaefce3          	bgeu	t4,a0,11d70 <TestDDR+0x1c>
   11d9c:	40010113          	addi	sp,sp,1024
   11da0:	8082                	ret
   11da2:	0008c783          	lbu	a5,0(a7)
   11da6:	0885                	addi	a7,a7,1
   11da8:	0505                	addi	a0,a0,1
   11daa:	00f80023          	sb	a5,0(a6)
   11dae:	0805                	addi	a6,a6,1
   11db0:	fcc89ee3          	bne	a7,a2,11d8c <TestDDR+0x38>
   11db4:	b7c5                	j	11d94 <TestDDR+0x40>
   11db6:	3441                	addiw	s0,s0,-16
   11db8:	0000                	unimp
   11dba:	7200                	ld	s0,32(a2)
   11dbc:	7369                	lui	t1,0xffffa
   11dbe:	01007663          	bgeu	zero,a6,11dca <TestDDR+0x76>
   11dc2:	002a                	c.slli	zero,0xa
   11dc4:	0000                	unimp
   11dc6:	1004                	addi	s1,sp,32
   11dc8:	7205                	lui	tp,0xfffe1
   11dca:	3676                	fld	fa2,376(sp)
   11dcc:	6934                	ld	a3,80(a0)
   11dce:	7032                	.2byte	0x7032
   11dd0:	5f30                	lw	a2,120(a4)
   11dd2:	326d                	addiw	tp,tp,-5 # fffffffffffe0ffb <_RODATA_END_+0xfffffffffffc1afb>
   11dd4:	3070                	fld	fa2,224(s0)
   11dd6:	615f 7032 5f30      	.byte	0x5f, 0x61, 0x32, 0x70, 0x30, 0x5f
   11ddc:	3266                	fld	ft4,120(sp)
   11dde:	3070                	fld	fa2,224(s0)
   11de0:	645f 7032 5f30      	.byte	0x5f, 0x64, 0x32, 0x70, 0x30, 0x5f
   11de6:	30703263          	.4byte	0x30703263
	...

0000000000011dec <fe_0>:
   11dec:	00052023          	sw	zero,0(a0)
   11df0:	00052223          	sw	zero,4(a0)
   11df4:	00052423          	sw	zero,8(a0)
   11df8:	00052623          	sw	zero,12(a0)
   11dfc:	00052823          	sw	zero,16(a0)
   11e00:	00052a23          	sw	zero,20(a0)
   11e04:	00052c23          	sw	zero,24(a0)
   11e08:	00052e23          	sw	zero,28(a0)
   11e0c:	02052023          	sw	zero,32(a0)
   11e10:	02052223          	sw	zero,36(a0)
   11e14:	8082                	ret

0000000000011e16 <fe_1>:
   11e16:	4785                	li	a5,1
   11e18:	c11c                	sw	a5,0(a0)
   11e1a:	00052223          	sw	zero,4(a0)
   11e1e:	00052423          	sw	zero,8(a0)
   11e22:	00052623          	sw	zero,12(a0)
   11e26:	00052823          	sw	zero,16(a0)
   11e2a:	00052a23          	sw	zero,20(a0)
   11e2e:	00052c23          	sw	zero,24(a0)
   11e32:	00052e23          	sw	zero,28(a0)
   11e36:	02052023          	sw	zero,32(a0)
   11e3a:	02052223          	sw	zero,36(a0)
   11e3e:	8082                	ret

0000000000011e40 <fe_add>:
   11e40:	7139                	addi	sp,sp,-64
   11e42:	fc22                	sd	s0,56(sp)
   11e44:	f826                	sd	s1,48(sp)
   11e46:	f44a                	sd	s2,40(sp)
   11e48:	f04e                	sd	s3,32(sp)
   11e4a:	ec52                	sd	s4,24(sp)
   11e4c:	e856                	sd	s5,16(sp)
   11e4e:	e45a                	sd	s6,8(sp)
   11e50:	0045aa83          	lw	s5,4(a1) # 40000004 <_RODATA_END_+0x3ffe0b04>
   11e54:	0085aa03          	lw	s4,8(a1)
   11e58:	00c5a983          	lw	s3,12(a1)
   11e5c:	0105a903          	lw	s2,16(a1)
   11e60:	49c4                	lw	s1,20(a1)
   11e62:	4d80                	lw	s0,24(a1)
   11e64:	00462b03          	lw	s6,4(a2) # 2004 <_entry-0xdffc>
   11e68:	00862e83          	lw	t4,8(a2)
   11e6c:	00c62e03          	lw	t3,12(a2)
   11e70:	01062303          	lw	t1,16(a2)
   11e74:	01c5a383          	lw	t2,28(a1)
   11e78:	0205a283          	lw	t0,32(a1)
   11e7c:	0245af83          	lw	t6,36(a1)
   11e80:	0005af03          	lw	t5,0(a1)
   11e84:	420c                	lw	a1,0(a2)
   11e86:	01462883          	lw	a7,20(a2)
   11e8a:	01862803          	lw	a6,24(a2)
   11e8e:	4e54                	lw	a3,28(a2)
   11e90:	5218                	lw	a4,32(a2)
   11e92:	525c                	lw	a5,36(a2)
   11e94:	014e8ebb          	addw	t4,t4,s4
   11e98:	015b063b          	addw	a2,s6,s5
   11e9c:	013e0e3b          	addw	t3,t3,s3
   11ea0:	0123033b          	addw	t1,t1,s2
   11ea4:	01e585bb          	addw	a1,a1,t5
   11ea8:	009888bb          	addw	a7,a7,s1
   11eac:	c10c                	sw	a1,0(a0)
   11eae:	c150                	sw	a2,4(a0)
   11eb0:	01d52423          	sw	t4,8(a0)
   11eb4:	01c52623          	sw	t3,12(a0)
   11eb8:	00652823          	sw	t1,16(a0)
   11ebc:	01152a23          	sw	a7,20(a0)
   11ec0:	0088083b          	addw	a6,a6,s0
   11ec4:	7462                	ld	s0,56(sp)
   11ec6:	007686bb          	addw	a3,a3,t2
   11eca:	0057073b          	addw	a4,a4,t0
   11ece:	01f787bb          	addw	a5,a5,t6
   11ed2:	01052c23          	sw	a6,24(a0)
   11ed6:	cd54                	sw	a3,28(a0)
   11ed8:	d118                	sw	a4,32(a0)
   11eda:	d15c                	sw	a5,36(a0)
   11edc:	74c2                	ld	s1,48(sp)
   11ede:	7922                	ld	s2,40(sp)
   11ee0:	7982                	ld	s3,32(sp)
   11ee2:	6a62                	ld	s4,24(sp)
   11ee4:	6ac2                	ld	s5,16(sp)
   11ee6:	6b22                	ld	s6,8(sp)
   11ee8:	6121                	addi	sp,sp,64
   11eea:	8082                	ret

0000000000011eec <fe_cmov>:
   11eec:	7139                	addi	sp,sp,-64
   11eee:	fc22                	sd	s0,56(sp)
   11ef0:	f826                	sd	s1,48(sp)
   11ef2:	f44a                	sd	s2,40(sp)
   11ef4:	f04e                	sd	s3,32(sp)
   11ef6:	ec52                	sd	s4,24(sp)
   11ef8:	e856                	sd	s5,16(sp)
   11efa:	e45a                	sd	s6,8(sp)
   11efc:	e05e                	sd	s7,0(sp)
   11efe:	0045ae83          	lw	t4,4(a1)
   11f02:	0085ae03          	lw	t3,8(a1)
   11f06:	00c5a303          	lw	t1,12(a1)
   11f0a:	0105a883          	lw	a7,16(a1)
   11f0e:	0145a803          	lw	a6,20(a1)
   11f12:	0185ab83          	lw	s7,24(a1)
   11f16:	4dd4                	lw	a3,28(a1)
   11f18:	5198                	lw	a4,32(a1)
   11f1a:	51dc                	lw	a5,36(a1)
   11f1c:	0005aa83          	lw	s5,0(a1)
   11f20:	00052b03          	lw	s6,0(a0)
   11f24:	00452a03          	lw	s4,4(a0)
   11f28:	00852983          	lw	s3,8(a0)
   11f2c:	00c52903          	lw	s2,12(a0)
   11f30:	4904                	lw	s1,16(a0)
   11f32:	4940                	lw	s0,20(a0)
   11f34:	01852383          	lw	t2,24(a0)
   11f38:	01c52283          	lw	t0,28(a0)
   11f3c:	02052f83          	lw	t6,32(a0)
   11f40:	02452f03          	lw	t5,36(a0)
   11f44:	40c0063b          	negw	a2,a2
   11f48:	0173c5b3          	xor	a1,t2,s7
   11f4c:	015b4ab3          	xor	s5,s6,s5
   11f50:	01da4eb3          	xor	t4,s4,t4
   11f54:	01c9ce33          	xor	t3,s3,t3
   11f58:	00694333          	xor	t1,s2,t1
   11f5c:	0114c8b3          	xor	a7,s1,a7
   11f60:	01044833          	xor	a6,s0,a6
   11f64:	00d2c6b3          	xor	a3,t0,a3
   11f68:	00efc733          	xor	a4,t6,a4
   11f6c:	00ff47b3          	xor	a5,t5,a5
   11f70:	01d67eb3          	and	t4,a2,t4
   11f74:	01c67e33          	and	t3,a2,t3
   11f78:	00667333          	and	t1,a2,t1
   11f7c:	011678b3          	and	a7,a2,a7
   11f80:	01067833          	and	a6,a2,a6
   11f84:	8df1                	and	a1,a1,a2
   11f86:	8ef1                	and	a3,a3,a2
   11f88:	8f71                	and	a4,a4,a2
   11f8a:	8ff1                	and	a5,a5,a2
   11f8c:	01567633          	and	a2,a2,s5
   11f90:	00cb4633          	xor	a2,s6,a2
   11f94:	01da4a33          	xor	s4,s4,t4
   11f98:	01c9c9b3          	xor	s3,s3,t3
   11f9c:	00694933          	xor	s2,s2,t1
   11fa0:	0114c4b3          	xor	s1,s1,a7
   11fa4:	01044433          	xor	s0,s0,a6
   11fa8:	01452223          	sw	s4,4(a0)
   11fac:	01352423          	sw	s3,8(a0)
   11fb0:	01252623          	sw	s2,12(a0)
   11fb4:	c110                	sw	a2,0(a0)
   11fb6:	c904                	sw	s1,16(a0)
   11fb8:	c940                	sw	s0,20(a0)
   11fba:	7462                	ld	s0,56(sp)
   11fbc:	00b3c3b3          	xor	t2,t2,a1
   11fc0:	00d2c2b3          	xor	t0,t0,a3
   11fc4:	00efcfb3          	xor	t6,t6,a4
   11fc8:	00ff4f33          	xor	t5,t5,a5
   11fcc:	00752c23          	sw	t2,24(a0)
   11fd0:	00552e23          	sw	t0,28(a0)
   11fd4:	03f52023          	sw	t6,32(a0)
   11fd8:	03e52223          	sw	t5,36(a0)
   11fdc:	74c2                	ld	s1,48(sp)
   11fde:	7922                	ld	s2,40(sp)
   11fe0:	7982                	ld	s3,32(sp)
   11fe2:	6a62                	ld	s4,24(sp)
   11fe4:	6ac2                	ld	s5,16(sp)
   11fe6:	6b22                	ld	s6,8(sp)
   11fe8:	6b82                	ld	s7,0(sp)
   11fea:	6121                	addi	sp,sp,64
   11fec:	8082                	ret

0000000000011fee <fe_cswap>:
   11fee:	7175                	addi	sp,sp,-144
   11ff0:	e522                	sd	s0,136(sp)
   11ff2:	e126                	sd	s1,128(sp)
   11ff4:	ecda                	sd	s6,88(sp)
   11ff6:	4994                	lw	a3,16(a1)
   11ff8:	01052b03          	lw	s6,16(a0)
   11ffc:	4dc0                	lw	s0,28(a1)
   11ffe:	5184                	lw	s1,32(a1)
   12000:	0245a303          	lw	t1,36(a1)
   12004:	fcca                	sd	s2,120(sp)
   12006:	f4d2                	sd	s4,104(sp)
   12008:	f0d6                	sd	s5,96(sp)
   1200a:	e8de                	sd	s7,80(sp)
   1200c:	e4e2                	sd	s8,72(sp)
   1200e:	e0e6                	sd	s9,64(sp)
   12010:	fc6a                	sd	s10,56(sp)
   12012:	f86e                	sd	s11,48(sp)
   12014:	f8ce                	sd	s3,112(sp)
   12016:	0145a803          	lw	a6,20(a1)
   1201a:	0185a883          	lw	a7,24(a1)
   1201e:	00052d03          	lw	s10,0(a0)
   12022:	00452c83          	lw	s9,4(a0)
   12026:	00852c03          	lw	s8,8(a0)
   1202a:	00c52b83          	lw	s7,12(a0)
   1202e:	01452a83          	lw	s5,20(a0)
   12032:	01852a03          	lw	s4,24(a0)
   12036:	0005a383          	lw	t2,0(a1)
   1203a:	0045a283          	lw	t0,4(a1)
   1203e:	4598                	lw	a4,8(a1)
   12040:	45dc                	lw	a5,12(a1)
   12042:	e022                	sd	s0,0(sp)
   12044:	e426                	sd	s1,8(sp)
   12046:	e81a                	sd	t1,16(sp)
   12048:	00db4eb3          	xor	t4,s6,a3
   1204c:	01c52983          	lw	s3,28(a0)
   12050:	ec36                	sd	a3,24(sp)
   12052:	6682                	ld	a3,0(sp)
   12054:	02052903          	lw	s2,32(a0)
   12058:	5144                	lw	s1,36(a0)
   1205a:	f042                	sd	a6,32(sp)
   1205c:	f446                	sd	a7,40(sp)
   1205e:	010ace33          	xor	t3,s5,a6
   12062:	011a4333          	xor	t1,s4,a7
   12066:	6822                	ld	a6,8(sp)
   12068:	00d9c8b3          	xor	a7,s3,a3
   1206c:	66c2                	ld	a3,16(sp)
   1206e:	40c0063b          	negw	a2,a2
   12072:	007d4db3          	xor	s11,s10,t2
   12076:	005cc433          	xor	s0,s9,t0
   1207a:	00ec4fb3          	xor	t6,s8,a4
   1207e:	00fbcf33          	xor	t5,s7,a5
   12082:	01094833          	xor	a6,s2,a6
   12086:	8ea5                	xor	a3,a3,s1
   12088:	01b67db3          	and	s11,a2,s11
   1208c:	8c71                	and	s0,s0,a2
   1208e:	01f67fb3          	and	t6,a2,t6
   12092:	01e67f33          	and	t5,a2,t5
   12096:	01d67eb3          	and	t4,a2,t4
   1209a:	01c67e33          	and	t3,a2,t3
   1209e:	00667333          	and	t1,a2,t1
   120a2:	011678b3          	and	a7,a2,a7
   120a6:	01067833          	and	a6,a2,a6
   120aa:	8ef1                	and	a3,a3,a2
   120ac:	6662                	ld	a2,24(sp)
   120ae:	01db4b33          	xor	s6,s6,t4
   120b2:	008cccb3          	xor	s9,s9,s0
   120b6:	01d64eb3          	xor	t4,a2,t4
   120ba:	7602                	ld	a2,32(sp)
   120bc:	0082c2b3          	xor	t0,t0,s0
   120c0:	6402                	ld	s0,0(sp)
   120c2:	01cacab3          	xor	s5,s5,t3
   120c6:	01c64e33          	xor	t3,a2,t3
   120ca:	7622                	ld	a2,40(sp)
   120cc:	01bd4d33          	xor	s10,s10,s11
   120d0:	006a4a33          	xor	s4,s4,t1
   120d4:	8cb5                	xor	s1,s1,a3
   120d6:	01fc4c33          	xor	s8,s8,t6
   120da:	01ebcbb3          	xor	s7,s7,t5
   120de:	0119c9b3          	xor	s3,s3,a7
   120e2:	01094933          	xor	s2,s2,a6
   120e6:	01a52023          	sw	s10,0(a0)
   120ea:	01952223          	sw	s9,4(a0)
   120ee:	01852423          	sw	s8,8(a0)
   120f2:	01752623          	sw	s7,12(a0)
   120f6:	01652823          	sw	s6,16(a0)
   120fa:	01552a23          	sw	s5,20(a0)
   120fe:	01452c23          	sw	s4,24(a0)
   12102:	01352e23          	sw	s3,28(a0)
   12106:	03252023          	sw	s2,32(a0)
   1210a:	d144                	sw	s1,36(a0)
   1210c:	01144533          	xor	a0,s0,a7
   12110:	6442                	ld	s0,16(sp)
   12112:	64a2                	ld	s1,8(sp)
   12114:	01b3c3b3          	xor	t2,t2,s11
   12118:	00664333          	xor	t1,a2,t1
   1211c:	01f74733          	xor	a4,a4,t6
   12120:	01e7c7b3          	xor	a5,a5,t5
   12124:	0075a023          	sw	t2,0(a1)
   12128:	0055a223          	sw	t0,4(a1)
   1212c:	c598                	sw	a4,8(a1)
   1212e:	c5dc                	sw	a5,12(a1)
   12130:	01d5a823          	sw	t4,16(a1)
   12134:	01c5aa23          	sw	t3,20(a1)
   12138:	0065ac23          	sw	t1,24(a1)
   1213c:	cdc8                	sw	a0,28(a1)
   1213e:	8ea1                	xor	a3,a3,s0
   12140:	642a                	ld	s0,136(sp)
   12142:	0104c633          	xor	a2,s1,a6
   12146:	d190                	sw	a2,32(a1)
   12148:	d1d4                	sw	a3,36(a1)
   1214a:	648a                	ld	s1,128(sp)
   1214c:	7966                	ld	s2,120(sp)
   1214e:	79c6                	ld	s3,112(sp)
   12150:	7a26                	ld	s4,104(sp)
   12152:	7a86                	ld	s5,96(sp)
   12154:	6b66                	ld	s6,88(sp)
   12156:	6bc6                	ld	s7,80(sp)
   12158:	6c26                	ld	s8,72(sp)
   1215a:	6c86                	ld	s9,64(sp)
   1215c:	7d62                	ld	s10,56(sp)
   1215e:	7dc2                	ld	s11,48(sp)
   12160:	6149                	addi	sp,sp,144
   12162:	8082                	ret

0000000000012164 <fe_copy>:
   12164:	0005af03          	lw	t5,0(a1)
   12168:	0045ae83          	lw	t4,4(a1)
   1216c:	0085ae03          	lw	t3,8(a1)
   12170:	00c5a303          	lw	t1,12(a1)
   12174:	0105a883          	lw	a7,16(a1)
   12178:	0145a803          	lw	a6,20(a1)
   1217c:	4d90                	lw	a2,24(a1)
   1217e:	4dd4                	lw	a3,28(a1)
   12180:	5198                	lw	a4,32(a1)
   12182:	51dc                	lw	a5,36(a1)
   12184:	01e52023          	sw	t5,0(a0)
   12188:	01d52223          	sw	t4,4(a0)
   1218c:	01c52423          	sw	t3,8(a0)
   12190:	00652623          	sw	t1,12(a0)
   12194:	01152823          	sw	a7,16(a0)
   12198:	01052a23          	sw	a6,20(a0)
   1219c:	cd10                	sw	a2,24(a0)
   1219e:	cd54                	sw	a3,28(a0)
   121a0:	d118                	sw	a4,32(a0)
   121a2:	d15c                	sw	a5,36(a0)
   121a4:	8082                	ret

00000000000121a6 <fe_frombytes>:
   121a6:	7135                	addi	sp,sp,-160
   121a8:	f4da                	sd	s6,104(sp)
   121aa:	f0de                	sd	s7,96(sp)
   121ac:	ece2                	sd	s8,88(sp)
   121ae:	e8e6                	sd	s9,80(sp)
   121b0:	e4ea                	sd	s10,72(sp)
   121b2:	e0ee                	sd	s11,64(sp)
   121b4:	ed22                	sd	s0,152(sp)
   121b6:	e926                	sd	s1,144(sp)
   121b8:	e54a                	sd	s2,136(sp)
   121ba:	e14e                	sd	s3,128(sp)
   121bc:	fcd2                	sd	s4,120(sp)
   121be:	f8d6                	sd	s5,112(sp)
   121c0:	01f5c683          	lbu	a3,31(a1)
   121c4:	01e5c783          	lbu	a5,30(a1)
   121c8:	01d5c703          	lbu	a4,29(a1)
   121cc:	06c2                	slli	a3,a3,0x10
   121ce:	07a2                	slli	a5,a5,0x8
   121d0:	00b5c803          	lbu	a6,11(a1)
   121d4:	00c5ca03          	lbu	s4,12(a1)
   121d8:	8edd                	or	a3,a3,a5
   121da:	0045c403          	lbu	s0,4(a1)
   121de:	00a5c483          	lbu	s1,10(a1)
   121e2:	8ed9                	or	a3,a3,a4
   121e4:	0105c703          	lbu	a4,16(a1)
   121e8:	0185c983          	lbu	s3,24(a1)
   121ec:	0195c603          	lbu	a2,25(a1)
   121f0:	0115c383          	lbu	t2,17(a1)
   121f4:	0a42                	slli	s4,s4,0x10
   121f6:	0822                	slli	a6,a6,0x8
   121f8:	0055c883          	lbu	a7,5(a1)
   121fc:	0065ca83          	lbu	s5,6(a1)
   12200:	0125c283          	lbu	t0,18(a1)
   12204:	0015cf83          	lbu	t6,1(a1)
   12208:	0085c903          	lbu	s2,8(a1)
   1220c:	0095ce03          	lbu	t3,9(a1)
   12210:	f03a                	sd	a4,32(sp)
   12212:	e822                	sd	s0,16(sp)
   12214:	e426                	sd	s1,8(sp)
   12216:	01486833          	or	a6,a6,s4
   1221a:	00e5c483          	lbu	s1,14(a1)
   1221e:	0135cf03          	lbu	t5,19(a1)
   12222:	7a02                	ld	s4,32(sp)
   12224:	09a2                	slli	s3,s3,0x8
   12226:	0642                	slli	a2,a2,0x10
   12228:	020007b7          	lui	a5,0x2000
   1222c:	00c9e633          	or	a2,s3,a2
   12230:	03a2                	slli	t2,t2,0x8
   12232:	69c2                	ld	s3,16(sp)
   12234:	0175cc03          	lbu	s8,23(a1)
   12238:	f47a                	sd	t5,40(sp)
   1223a:	ffc78e93          	addi	t4,a5,-4 # 1fffffc <_RODATA_END_+0x1fe0afc>
   1223e:	0143e3b3          	or	t2,t2,s4
   12242:	0ac2                	slli	s5,s5,0x10
   12244:	068a                	slli	a3,a3,0x2
   12246:	08a2                	slli	a7,a7,0x8
   12248:	02c2                	slli	t0,t0,0x10
   1224a:	0155cb03          	lbu	s6,21(a1)
   1224e:	0165cb83          	lbu	s7,22(a1)
   12252:	01d6f6b3          	and	a3,a3,t4
   12256:	0072e2b3          	or	t0,t0,t2
   1225a:	0005ce83          	lbu	t4,0(a1)
   1225e:	73a2                	ld	t2,40(sp)
   12260:	0158e8b3          	or	a7,a7,s5
   12264:	0138e8b3          	or	a7,a7,s3
   12268:	69a2                	ld	s3,8(sp)
   1226a:	e062                	sd	s8,0(sp)
   1226c:	01000737          	lui	a4,0x1000
   12270:	6a82                	ld	s5,0(sp)
   12272:	f85a                	sd	s6,48(sp)
   12274:	fc5e                	sd	s7,56(sp)
   12276:	ec76                	sd	t4,24(sp)
   12278:	03e2                	slli	t2,t2,0x18
   1227a:	00f5c303          	lbu	t1,15(a1)
   1227e:	01b5cc83          	lbu	s9,27(a1)
   12282:	01c5cd03          	lbu	s10,28(a1)
   12286:	0025cd83          	lbu	s11,2(a1)
   1228a:	00e68eb3          	add	t4,a3,a4
   1228e:	7a62                	ld	s4,56(sp)
   12290:	0053e3b3          	or	t2,t2,t0
   12294:	01386833          	or	a6,a6,s3
   12298:	62e2                	ld	t0,24(sp)
   1229a:	79c2                	ld	s3,48(sp)
   1229c:	0075cc03          	lbu	s8,7(a1)
   122a0:	0035cf03          	lbu	t5,3(a1)
   122a4:	419ed413          	srai	s0,t4,0x19
   122a8:	00d5cb83          	lbu	s7,13(a1)
   122ac:	0145cb03          	lbu	s6,20(a1)
   122b0:	0922                	slli	s2,s2,0x8
   122b2:	01a5c583          	lbu	a1,26(a1)
   122b6:	01566633          	or	a2,a2,s5
   122ba:	0fa2                	slli	t6,t6,0x8
   122bc:	00241a93          	slli	s5,s0,0x2
   122c0:	0e42                	slli	t3,t3,0x10
   122c2:	089a                	slli	a7,a7,0x6
   122c4:	005fefb3          	or	t6,t6,t0
   122c8:	04a2                	slli	s1,s1,0x8
   122ca:	09a2                	slli	s3,s3,0x8
   122cc:	0ca2                	slli	s9,s9,0x8
   122ce:	01c96e33          	or	t3,s2,t3
   122d2:	9aa2                	add	s5,s5,s0
   122d4:	0342                	slli	t1,t1,0x10
   122d6:	0a42                	slli	s4,s4,0x10
   122d8:	0d42                	slli	s10,s10,0x10
   122da:	0dc2                	slli	s11,s11,0x10
   122dc:	00e88933          	add	s2,a7,a4
   122e0:	080e                	slli	a6,a6,0x3
   122e2:	0616                	slli	a2,a2,0x5
   122e4:	01fdedb3          	or	s11,s11,t6
   122e8:	018e6e33          	or	t3,t3,s8
   122ec:	0064e333          	or	t1,s1,t1
   122f0:	0149ea33          	or	s4,s3,s4
   122f4:	01aced33          	or	s10,s9,s10
   122f8:	0f62                	slli	t5,t5,0x18
   122fa:	0a8a                	slli	s5,s5,0x2
   122fc:	00e804b3          	add	s1,a6,a4
   12300:	00e382b3          	add	t0,t2,a4
   12304:	01736333          	or	t1,t1,s7
   12308:	9732                	add	a4,a4,a2
   1230a:	01bf6f33          	or	t5,t5,s11
   1230e:	005e1b93          	slli	s7,t3,0x5
   12312:	016a6a33          	or	s4,s4,s6
   12316:	00bd6d33          	or	s10,s10,a1
   1231a:	408a8ab3          	sub	s5,s5,s0
   1231e:	41995e13          	srai	t3,s2,0x19
   12322:	fe000fb7          	lui	t6,0xfe000
   12326:	9afa                	add	s5,s5,t5
   12328:	00231b13          	slli	s6,t1,0x2
   1232c:	41975593          	srai	a1,a4,0x19
   12330:	9e5e                	add	t3,t3,s7
   12332:	0a1e                	slli	s4,s4,0x7
   12334:	0d12                	slli	s10,s10,0x4
   12336:	4194d313          	srai	t1,s1,0x19
   1233a:	4192d993          	srai	s3,t0,0x19
   1233e:	99d2                	add	s3,s3,s4
   12340:	01a58f33          	add	t5,a1,s10
   12344:	00fa8bb3          	add	s7,s5,a5
   12348:	fc0005b7          	lui	a1,0xfc000
   1234c:	935a                	add	t1,t1,s6
   1234e:	01fefeb3          	and	t4,t4,t6
   12352:	00fe0b33          	add	s6,t3,a5
   12356:	01f97933          	and	s2,s2,t6
   1235a:	01f4f4b3          	and	s1,s1,t6
   1235e:	00f98433          	add	s0,s3,a5
   12362:	00f30a33          	add	s4,t1,a5
   12366:	41288933          	sub	s2,a7,s2
   1236a:	409804b3          	sub	s1,a6,s1
   1236e:	01f77733          	and	a4,a4,t6
   12372:	00bb7833          	and	a6,s6,a1
   12376:	41d68eb3          	sub	t4,a3,t4
   1237a:	41ab5b13          	srai	s6,s6,0x1a
   1237e:	00bbf6b3          	and	a3,s7,a1
   12382:	41abdb93          	srai	s7,s7,0x1a
   12386:	00b478b3          	and	a7,s0,a1
   1238a:	9bca                	add	s7,s7,s2
   1238c:	9b26                	add	s6,s6,s1
   1238e:	01f2f2b3          	and	t0,t0,t6
   12392:	40e60733          	sub	a4,a2,a4
   12396:	40da8fb3          	sub	t6,s5,a3
   1239a:	00ba7633          	and	a2,s4,a1
   1239e:	8469                	srai	s0,s0,0x1a
   123a0:	410e0833          	sub	a6,t3,a6
   123a4:	97fa                	add	a5,a5,t5
   123a6:	943a                	add	s0,s0,a4
   123a8:	01752223          	sw	s7,4(a0)
   123ac:	01652623          	sw	s6,12(a0)
   123b0:	40c30633          	sub	a2,t1,a2
   123b4:	01f52023          	sw	t6,0(a0)
   123b8:	01052423          	sw	a6,8(a0)
   123bc:	c910                	sw	a2,16(a0)
   123be:	8dfd                	and	a1,a1,a5
   123c0:	cd40                	sw	s0,28(a0)
   123c2:	405382b3          	sub	t0,t2,t0
   123c6:	646a                	ld	s0,152(sp)
   123c8:	41aa5a13          	srai	s4,s4,0x1a
   123cc:	87e9                	srai	a5,a5,0x1a
   123ce:	9a16                	add	s4,s4,t0
   123d0:	411986b3          	sub	a3,s3,a7
   123d4:	40bf05b3          	sub	a1,t5,a1
   123d8:	97f6                	add	a5,a5,t4
   123da:	01452a23          	sw	s4,20(a0)
   123de:	cd14                	sw	a3,24(a0)
   123e0:	d10c                	sw	a1,32(a0)
   123e2:	d15c                	sw	a5,36(a0)
   123e4:	64ca                	ld	s1,144(sp)
   123e6:	692a                	ld	s2,136(sp)
   123e8:	698a                	ld	s3,128(sp)
   123ea:	7a66                	ld	s4,120(sp)
   123ec:	7ac6                	ld	s5,112(sp)
   123ee:	7b26                	ld	s6,104(sp)
   123f0:	7b86                	ld	s7,96(sp)
   123f2:	6c66                	ld	s8,88(sp)
   123f4:	6cc6                	ld	s9,80(sp)
   123f6:	6d26                	ld	s10,72(sp)
   123f8:	6d86                	ld	s11,64(sp)
   123fa:	610d                	addi	sp,sp,160
   123fc:	8082                	ret

00000000000123fe <fe_mul>:
   123fe:	716d                	addi	sp,sp,-272
   12400:	e1e6                	sd	s9,192(sp)
   12402:	0045ac83          	lw	s9,4(a1) # fffffffffc000004 <_RODATA_END_+0xfffffffffbfe0b04>
   12406:	4658                	lw	a4,12(a2)
   12408:	0005af83          	lw	t6,0(a1)
   1240c:	01062383          	lw	t2,16(a2)
   12410:	e622                	sd	s0,264(sp)
   12412:	e5e2                	sd	s8,200(sp)
   12414:	001c941b          	slliw	s0,s9,0x1
   12418:	00c5ac03          	lw	s8,12(a1)
   1241c:	edda                	sd	s6,216(sp)
   1241e:	e9de                	sd	s7,208(sp)
   12420:	f96e                	sd	s11,176(sp)
   12422:	02462b83          	lw	s7,36(a2)
   12426:	02870b33          	mul	s6,a4,s0
   1242a:	0145ad83          	lw	s11,20(a1)
   1242e:	e226                	sd	s1,256(sp)
   12430:	fdca                	sd	s2,248(sp)
   12432:	f9ce                	sd	s3,240(sp)
   12434:	f5d2                	sd	s4,232(sp)
   12436:	f1d6                	sd	s5,224(sp)
   12438:	fd6a                	sd	s10,184(sp)
   1243a:	fc62                	sd	s8,56(sp)
   1243c:	f022                	sd	s0,32(sp)
   1243e:	027f86b3          	mul	a3,t6,t2
   12442:	00462803          	lw	a6,4(a2)
   12446:	00862e03          	lw	t3,8(a2)
   1244a:	4984                	lw	s1,16(a1)
   1244c:	0085a883          	lw	a7,8(a1)
   12450:	00062f03          	lw	t5,0(a2)
   12454:	0185ae83          	lw	t4,24(a1)
   12458:	01462303          	lw	t1,20(a2)
   1245c:	01862983          	lw	s3,24(a2)
   12460:	01c62283          	lw	t0,28(a2)
   12464:	02062a03          	lw	s4,32(a2)
   12468:	01c5a903          	lw	s2,28(a1)
   1246c:	002b961b          	slliw	a2,s7,0x2
   12470:	e0ee                	sd	s11,64(sp)
   12472:	0245aa83          	lw	s5,36(a1)
   12476:	0176063b          	addw	a2,a2,s7
   1247a:	001d941b          	slliw	s0,s11,0x1
   1247e:	0026161b          	slliw	a2,a2,0x2
   12482:	4176063b          	subw	a2,a2,s7
   12486:	8dd6                	mv	s11,s5
   12488:	e55e                	sd	s7,136(sp)
   1248a:	00040a9b          	sext.w	s5,s0
   1248e:	00299b9b          	slliw	s7,s3,0x2
   12492:	5180                	lw	s0,32(a1)
   12494:	0023159b          	slliw	a1,t1,0x2
   12498:	013b8bbb          	addw	s7,s7,s3
   1249c:	006585bb          	addw	a1,a1,t1
   124a0:	001c1d1b          	slliw	s10,s8,0x1
   124a4:	e4ca                	sd	s2,72(sp)
   124a6:	002b9b9b          	slliw	s7,s7,0x2
   124aa:	0019191b          	slliw	s2,s2,0x1
   124ae:	0025959b          	slliw	a1,a1,0x2
   124b2:	f84a                	sd	s2,48(sp)
   124b4:	e8ea                	sd	s10,80(sp)
   124b6:	03a80933          	mul	s2,a6,s10
   124ba:	406585bb          	subw	a1,a1,t1
   124be:	413b8d3b          	subw	s10,s7,s3
   124c2:	001d9b9b          	slliw	s7,s11,0x1
   124c6:	f42e                	sd	a1,40(sp)
   124c8:	96da                	add	a3,a3,s6
   124ca:	000b859b          	sext.w	a1,s7
   124ce:	e856                	sd	s5,16(sp)
   124d0:	00229c1b          	slliw	s8,t0,0x2
   124d4:	005c0c3b          	addw	s8,s8,t0
   124d8:	03938b33          	mul	s6,t2,s9
   124dc:	002c1c1b          	slliw	s8,s8,0x2
   124e0:	405c0c3b          	subw	s8,s8,t0
   124e4:	e462                	sd	s8,8(sp)
   124e6:	7c62                	ld	s8,56(sp)
   124e8:	002a179b          	slliw	a5,s4,0x2
   124ec:	ec2e                	sd	a1,24(sp)
   124ee:	014787bb          	addw	a5,a5,s4
   124f2:	0023959b          	slliw	a1,t2,0x2
   124f6:	007585bb          	addw	a1,a1,t2
   124fa:	026f8bb3          	mul	s7,t6,t1
   124fe:	0027979b          	slliw	a5,a5,0x2
   12502:	414787bb          	subw	a5,a5,s4
   12506:	0025959b          	slliw	a1,a1,0x2
   1250a:	e03e                	sd	a5,0(sp)
   1250c:	407587bb          	subw	a5,a1,t2
   12510:	f0be                	sd	a5,96(sp)
   12512:	6782                	ld	a5,0(sp)
   12514:	fcee                	sd	s11,120(sp)
   12516:	8de6                	mv	s11,s9
   12518:	031e0ab3          	mul	s5,t3,a7
   1251c:	9bda                	add	s7,s7,s6
   1251e:	0028159b          	slliw	a1,a6,0x2
   12522:	010585bb          	addw	a1,a1,a6
   12526:	0025959b          	slliw	a1,a1,0x2
   1252a:	410585bb          	subw	a1,a1,a6
   1252e:	f12e                	sd	a1,160(sp)
   12530:	020005b7          	lui	a1,0x2000
   12534:	f8ee                	sd	s11,112(sp)
   12536:	03170b33          	mul	s6,a4,a7
   1253a:	96d6                	add	a3,a3,s5
   1253c:	00271a9b          	slliw	s5,a4,0x2
   12540:	00ea8abb          	addw	s5,s5,a4
   12544:	002a9a9b          	slliw	s5,s5,0x2
   12548:	40ea8abb          	subw	s5,s5,a4
   1254c:	f4d6                	sd	s5,104(sp)
   1254e:	96ca                	add	a3,a3,s2
   12550:	002e191b          	slliw	s2,t3,0x2
   12554:	01c9093b          	addw	s2,s2,t3
   12558:	029f0ab3          	mul	s5,t5,s1
   1255c:	9bda                	add	s7,s7,s6
   1255e:	0029191b          	slliw	s2,s2,0x2
   12562:	41c90cbb          	subw	s9,s2,t3
   12566:	e166                	sd	s9,128(sp)
   12568:	6ca2                	ld	s9,8(sp)
   1256a:	fc000937          	lui	s2,0xfc000
   1256e:	038e0b33          	mul	s6,t3,s8
   12572:	9ab6                	add	s5,s5,a3
   12574:	66c2                	ld	a3,16(sp)
   12576:	9bda                	add	s7,s7,s6
   12578:	02980b33          	mul	s6,a6,s1
   1257c:	02d606b3          	mul	a3,a2,a3
   12580:	9bda                	add	s7,s7,s6
   12582:	7b02                	ld	s6,32(sp)
   12584:	9ab6                	add	s5,s5,a3
   12586:	03d786b3          	mul	a3,a5,t4
   1258a:	87ea                	mv	a5,s10
   1258c:	03630c33          	mul	s8,t1,s6
   12590:	7b42                	ld	s6,48(sp)
   12592:	9ab6                	add	s5,s5,a3
   12594:	036c8b33          	mul	s6,s9,s6
   12598:	6c86                	ld	s9,64(sp)
   1259a:	033f86b3          	mul	a3,t6,s3
   1259e:	9ada                	add	s5,s5,s6
   125a0:	03138b33          	mul	s6,t2,a7
   125a4:	96e2                	add	a3,a3,s8
   125a6:	039f0c33          	mul	s8,t5,s9
   125aa:	96da                	add	a3,a3,s6
   125ac:	7ca2                	ld	s9,40(sp)
   125ae:	03d60b33          	mul	s6,a2,t4
   125b2:	9be2                	add	s7,s7,s8
   125b4:	028d0c33          	mul	s8,s10,s0
   125b8:	9bda                	add	s7,s7,s6
   125ba:	6b62                	ld	s6,24(sp)
   125bc:	6d46                	ld	s10,80(sp)
   125be:	036c8b33          	mul	s6,s9,s6
   125c2:	9ae2                	add	s5,s5,s8
   125c4:	6ca6                	ld	s9,72(sp)
   125c6:	03a70c33          	mul	s8,a4,s10
   125ca:	9ada                	add	s5,s5,s6
   125cc:	00ba8b33          	add	s6,s5,a1
   125d0:	6d02                	ld	s10,0(sp)
   125d2:	96e2                	add	a3,a3,s8
   125d4:	41ab5c13          	srai	s8,s6,0x1a
   125d8:	012b7b33          	and	s6,s6,s2
   125dc:	416a8ab3          	sub	s5,s5,s6
   125e0:	029e0b33          	mul	s6,t3,s1
   125e4:	e956                	sd	s5,144(sp)
   125e6:	039d0cb3          	mul	s9,s10,s9
   125ea:	96da                	add	a3,a3,s6
   125ec:	025f8ab3          	mul	s5,t6,t0
   125f0:	9be6                	add	s7,s7,s9
   125f2:	6ca2                	ld	s9,8(sp)
   125f4:	03b98b33          	mul	s6,s3,s11
   125f8:	028c8cb3          	mul	s9,s9,s0
   125fc:	9ada                	add	s5,s5,s6
   125fe:	6b42                	ld	s6,16(sp)
   12600:	7d02                	ld	s10,32(sp)
   12602:	7de6                	ld	s11,120(sp)
   12604:	ecbe                	sd	a5,88(sp)
   12606:	03b78db3          	mul	s11,a5,s11
   1260a:	9be6                	add	s7,s7,s9
   1260c:	03130cb3          	mul	s9,t1,a7
   12610:	9bee                	add	s7,s7,s11
   12612:	9be2                	add	s7,s7,s8
   12614:	01000c37          	lui	s8,0x1000
   12618:	9c5e                	add	s8,s8,s7
   1261a:	fe000db7          	lui	s11,0xfe000
   1261e:	419c5793          	srai	a5,s8,0x19
   12622:	01bc7c33          	and	s8,s8,s11
   12626:	418b8bb3          	sub	s7,s7,s8
   1262a:	7c62                	ld	s8,56(sp)
   1262c:	03680b33          	mul	s6,a6,s6
   12630:	9ae6                	add	s5,s5,s9
   12632:	ed5e                	sd	s7,152(sp)
   12634:	7dc6                	ld	s11,112(sp)
   12636:	02cd0cb3          	mul	s9,s10,a2
   1263a:	6d02                	ld	s10,0(sp)
   1263c:	96da                	add	a3,a3,s6
   1263e:	03ef8b33          	mul	s6,t6,t5
   12642:	03a88bb3          	mul	s7,a7,s10
   12646:	9b66                	add	s6,s6,s9
   12648:	6d46                	ld	s10,80(sp)
   1264a:	03838c33          	mul	s8,t2,s8
   1264e:	9b5e                	add	s6,s6,s7
   12650:	9ae2                	add	s5,s5,s8
   12652:	02970bb3          	mul	s7,a4,s1
   12656:	7c42                	ld	s8,48(sp)
   12658:	03df0cb3          	mul	s9,t5,t4
   1265c:	9ade                	add	s5,s5,s7
   1265e:	7b82                	ld	s7,32(sp)
   12660:	03860c33          	mul	s8,a2,s8
   12664:	96e6                	add	a3,a3,s9
   12666:	96e2                	add	a3,a3,s8
   12668:	03728c33          	mul	s8,t0,s7
   1266c:	6ba2                	ld	s7,8(sp)
   1266e:	034f8cb3          	mul	s9,t6,s4
   12672:	037d0bb3          	mul	s7,s10,s7
   12676:	9ce2                	add	s9,s9,s8
   12678:	6d02                	ld	s10,0(sp)
   1267a:	030f8c33          	mul	s8,t6,a6
   1267e:	9b5e                	add	s6,s6,s7
   12680:	03bf0bb3          	mul	s7,t5,s11
   12684:	028d0db3          	mul	s11,s10,s0
   12688:	9c5e                	add	s8,s8,s7
   1268a:	6b86                	ld	s7,64(sp)
   1268c:	6d66                	ld	s10,88(sp)
   1268e:	037e0bb3          	mul	s7,t3,s7
   12692:	96ee                	add	a3,a3,s11
   12694:	03198db3          	mul	s11,s3,a7
   12698:	9bd6                	add	s7,s7,s5
   1269a:	03a48ab3          	mul	s5,s1,s10
   1269e:	9de6                	add	s11,s11,s9
   126a0:	6d22                	ld	s10,8(sp)
   126a2:	03160cb3          	mul	s9,a2,a7
   126a6:	9ada                	add	s5,s5,s6
   126a8:	6b62                	ld	s6,24(sp)
   126aa:	036d0b33          	mul	s6,s10,s6
   126ae:	9ce2                	add	s9,s9,s8
   126b0:	6d46                	ld	s10,80(sp)
   126b2:	03d80c33          	mul	s8,a6,t4
   126b6:	96da                	add	a3,a3,s6
   126b8:	96be                	add	a3,a3,a5
   126ba:	00b68b33          	add	s6,a3,a1
   126be:	41ab5793          	srai	a5,s6,0x1a
   126c2:	012b7b33          	and	s6,s6,s2
   126c6:	416686b3          	sub	a3,a3,s6
   126ca:	6b42                	ld	s6,16(sp)
   126cc:	cd14                	sw	a3,24(a0)
   126ce:	f53e                	sd	a5,168(sp)
   126d0:	9c5e                	add	s8,s8,s7
   126d2:	7ba2                	ld	s7,40(sp)
   126d4:	03a306b3          	mul	a3,t1,s10
   126d8:	6782                	ld	a5,0(sp)
   126da:	037b0b33          	mul	s6,s6,s7
   126de:	7be2                	ld	s7,56(sp)
   126e0:	96ee                	add	a3,a3,s11
   126e2:	7dc6                	ld	s11,112(sp)
   126e4:	9b56                	add	s6,s6,s5
   126e6:	6aa6                	ld	s5,72(sp)
   126e8:	03778bb3          	mul	s7,a5,s7
   126ec:	67aa                	ld	a5,136(sp)
   126ee:	035f0ab3          	mul	s5,t5,s5
   126f2:	9be6                	add	s7,s7,s9
   126f4:	9ae2                	add	s5,s5,s8
   126f6:	03ba0a33          	mul	s4,s4,s11
   126fa:	03f78c33          	mul	s8,a5,t6
   126fe:	77a6                	ld	a5,104(sp)
   12700:	02938cb3          	mul	s9,t2,s1
   12704:	9a62                	add	s4,s4,s8
   12706:	6c22                	ld	s8,8(sp)
   12708:	9cb6                	add	s9,s9,a3
   1270a:	029c0c33          	mul	s8,s8,s1
   1270e:	7686                	ld	a3,96(sp)
   12710:	02de86b3          	mul	a3,t4,a3
   12714:	9c5e                	add	s8,s8,s7
   12716:	7b82                	ld	s7,32(sp)
   12718:	96da                	add	a3,a3,s6
   1271a:	03780db3          	mul	s11,a6,s7
   1271e:	03cf8b33          	mul	s6,t6,t3
   12722:	9b6e                	add	s6,s6,s11
   12724:	6dc2                	ld	s11,16(sp)
   12726:	02860bb3          	mul	s7,a2,s0
   1272a:	03b70db3          	mul	s11,a4,s11
   1272e:	9bd6                	add	s7,s7,s5
   12730:	031282b3          	mul	t0,t0,a7
   12734:	9de6                	add	s11,s11,s9
   12736:	7cc2                	ld	s9,48(sp)
   12738:	92d2                	add	t0,t0,s4
   1273a:	02fc8ab3          	mul	s5,s9,a5
   1273e:	6ce6                	ld	s9,88(sp)
   12740:	6a06                	ld	s4,64(sp)
   12742:	6782                	ld	a5,0(sp)
   12744:	034c8a33          	mul	s4,s9,s4
   12748:	7ce6                	ld	s9,120(sp)
   1274a:	9ab6                	add	s5,s5,a3
   1274c:	9a62                	add	s4,s4,s8
   1274e:	03978c33          	mul	s8,a5,s9
   12752:	77aa                	ld	a5,168(sp)
   12754:	9be2                	add	s7,s7,s8
   12756:	9bbe                	add	s7,s7,a5
   12758:	01000c37          	lui	s8,0x1000
   1275c:	9c5e                	add	s8,s8,s7
   1275e:	fe0007b7          	lui	a5,0xfe000
   12762:	419c5c93          	srai	s9,s8,0x19
   12766:	00fc7c33          	and	s8,s8,a5
   1276a:	418b8bb3          	sub	s7,s7,s8
   1276e:	7c62                	ld	s8,56(sp)
   12770:	678a                	ld	a5,128(sp)
   12772:	01752e23          	sw	s7,28(a0)
   12776:	038989b3          	mul	s3,s3,s8
   1277a:	02f40bb3          	mul	s7,s0,a5
   1277e:	92ce                	add	t0,t0,s3
   12780:	79a2                	ld	s3,40(sp)
   12782:	031f06b3          	mul	a3,t5,a7
   12786:	9bd6                	add	s7,s7,s5
   12788:	03d989b3          	mul	s3,s3,t4
   1278c:	96da                	add	a3,a3,s6
   1278e:	03a60ab3          	mul	s5,a2,s10
   12792:	7d42                	ld	s10,48(sp)
   12794:	99d2                	add	s3,s3,s4
   12796:	03de0b33          	mul	s6,t3,t4
   1279a:	9ab6                	add	s5,s5,a3
   1279c:	66e2                	ld	a3,24(sp)
   1279e:	03a80a33          	mul	s4,a6,s10
   127a2:	9b6e                	add	s6,s6,s11
   127a4:	7dc6                	ld	s11,112(sp)
   127a6:	9a5a                	add	s4,s4,s6
   127a8:	7b0a                	ld	s6,160(sp)
   127aa:	02930333          	mul	t1,t1,s1
   127ae:	02db06b3          	mul	a3,s6,a3
   127b2:	9316                	add	t1,t1,t0
   127b4:	7b06                	ld	s6,96(sp)
   127b6:	62a6                	ld	t0,72(sp)
   127b8:	9bb6                	add	s7,s7,a3
   127ba:	00bb86b3          	add	a3,s7,a1
   127be:	025b02b3          	mul	t0,s6,t0
   127c2:	41a6db13          	srai	s6,a3,0x1a
   127c6:	0126f6b3          	and	a3,a3,s2
   127ca:	40db86b3          	sub	a3,s7,a3
   127ce:	6b82                	ld	s7,0(sp)
   127d0:	029b8bb3          	mul	s7,s7,s1
   127d4:	92ce                	add	t0,t0,s3
   127d6:	9bd6                	add	s7,s7,s5
   127d8:	03be0ab3          	mul	s5,t3,s11
   127dc:	6d86                	ld	s11,64(sp)
   127de:	028f09b3          	mul	s3,t5,s0
   127e2:	03b383b3          	mul	t2,t2,s11
   127e6:	99d2                	add	s3,s3,s4
   127e8:	6a22                	ld	s4,8(sp)
   127ea:	02ef8fb3          	mul	t6,t6,a4
   127ee:	931e                	add	t1,t1,t2
   127f0:	63c2                	ld	t2,16(sp)
   127f2:	9afe                	add	s5,s5,t6
   127f4:	027a03b3          	mul	t2,s4,t2
   127f8:	7fa6                	ld	t6,104(sp)
   127fa:	6a26                	ld	s4,72(sp)
   127fc:	028f8fb3          	mul	t6,t6,s0
   12800:	9b9e                	add	s7,s7,t2
   12802:	63e2                	ld	t2,24(sp)
   12804:	9f96                	add	t6,t6,t0
   12806:	027602b3          	mul	t0,a2,t2
   1280a:	031808b3          	mul	a7,a6,a7
   1280e:	9996                	add	s3,s3,t0
   12810:	99e6                	add	s3,s3,s9
   12812:	00b982b3          	add	t0,s3,a1
   12816:	41a2d393          	srai	t2,t0,0x1a
   1281a:	0122f2b3          	and	t0,t0,s2
   1281e:	405989b3          	sub	s3,s3,t0
   12822:	6ce6                	ld	s9,88(sp)
   12824:	03352023          	sw	s3,32(a0)
   12828:	98d6                	add	a7,a7,s5
   1282a:	7ae6                	ld	s5,120(sp)
   1282c:	03d70733          	mul	a4,a4,t4
   12830:	035782b3          	mul	t0,a5,s5
   12834:	971a                	add	a4,a4,t1
   12836:	fe0007b7          	lui	a5,0xfe000
   1283a:	9f96                	add	t6,t6,t0
   1283c:	9fda                	add	t6,t6,s6
   1283e:	010002b7          	lui	t0,0x1000
   12842:	03dc8333          	mul	t1,s9,t4
   12846:	92fe                	add	t0,t0,t6
   12848:	4192d993          	srai	s3,t0,0x19
   1284c:	00f2f2b3          	and	t0,t0,a5
   12850:	405f82b3          	sub	t0,t6,t0
   12854:	7b22                	ld	s6,40(sp)
   12856:	6782                	ld	a5,0(sp)
   12858:	038f0fb3          	mul	t6,t5,s8
   1285c:	935e                	add	t1,t1,s7
   1285e:	7b86                	ld	s7,96(sp)
   12860:	02960633          	mul	a2,a2,s1
   12864:	9fc6                	add	t6,t6,a7
   12866:	034e0e33          	mul	t3,t3,s4
   1286a:	9fb2                	add	t6,t6,a2
   1286c:	03ab08b3          	mul	a7,s6,s10
   12870:	9772                	add	a4,a4,t3
   12872:	6d22                	ld	s10,8(sp)
   12874:	02880833          	mul	a6,a6,s0
   12878:	989a                	add	a7,a7,t1
   1287a:	028b8633          	mul	a2,s7,s0
   1287e:	9742                	add	a4,a4,a6
   12880:	6862                	ld	a6,24(sp)
   12882:	035f0f33          	mul	t5,t5,s5
   12886:	9646                	add	a2,a2,a7
   12888:	78a6                	ld	a7,104(sp)
   1288a:	030888b3          	mul	a7,a7,a6
   1288e:	977a                	add	a4,a4,t5
   12890:	971e                	add	a4,a4,t2
   12892:	010003b7          	lui	t2,0x1000
   12896:	00770333          	add	t1,a4,t2
   1289a:	41935e13          	srai	t3,t1,0x19
   1289e:	002e1813          	slli	a6,t3,0x2
   128a2:	9872                	add	a6,a6,t3
   128a4:	080a                	slli	a6,a6,0x2
   128a6:	41c80833          	sub	a6,a6,t3
   128aa:	03b787b3          	mul	a5,a5,s11
   128ae:	96c2                	add	a3,a3,a6
   128b0:	9646                	add	a2,a2,a7
   128b2:	00b688b3          	add	a7,a3,a1
   128b6:	964e                	add	a2,a2,s3
   128b8:	fe0009b7          	lui	s3,0xfe000
   128bc:	01337333          	and	t1,t1,s3
   128c0:	40670733          	sub	a4,a4,t1
   128c4:	00b60e33          	add	t3,a2,a1
   128c8:	41ae5813          	srai	a6,t3,0x1a
   128cc:	97fe                	add	a5,a5,t6
   128ce:	0128ffb3          	and	t6,a7,s2
   128d2:	03dd0eb3          	mul	t4,s10,t4
   128d6:	41f686b3          	sub	a3,a3,t6
   128da:	41a8d893          	srai	a7,a7,0x1a
   128de:	c114                	sw	a3,0(a0)
   128e0:	9896                	add	a7,a7,t0
   128e2:	01152223          	sw	a7,4(a0)
   128e6:	d158                	sw	a4,36(a0)
   128e8:	012e7e33          	and	t3,t3,s2
   128ec:	41c60633          	sub	a2,a2,t3
   128f0:	c510                	sw	a2,8(a0)
   128f2:	034c8f33          	mul	t5,s9,s4
   128f6:	97f6                	add	a5,a5,t4
   128f8:	6492                	ld	s1,256(sp)
   128fa:	7a2e                	ld	s4,232(sp)
   128fc:	6c2e                	ld	s8,200(sp)
   128fe:	6c8e                	ld	s9,192(sp)
   12900:	7d6a                	ld	s10,184(sp)
   12902:	7dca                	ld	s11,176(sp)
   12904:	028b0733          	mul	a4,s6,s0
   12908:	97fa                	add	a5,a5,t5
   1290a:	6432                	ld	s0,264(sp)
   1290c:	6b6e                	ld	s6,216(sp)
   1290e:	035b86b3          	mul	a3,s7,s5
   12912:	97ba                	add	a5,a5,a4
   12914:	6aca                	ld	s5,144(sp)
   12916:	6bea                	ld	s7,152(sp)
   12918:	97b6                	add	a5,a5,a3
   1291a:	00f806b3          	add	a3,a6,a5
   1291e:	007687b3          	add	a5,a3,t2
   12922:	4197d713          	srai	a4,a5,0x19
   12926:	9756                	add	a4,a4,s5
   12928:	95ba                	add	a1,a1,a4
   1292a:	0125f933          	and	s2,a1,s2
   1292e:	0137f7b3          	and	a5,a5,s3
   12932:	85e9                	srai	a1,a1,0x1a
   12934:	41270733          	sub	a4,a4,s2
   12938:	95de                	add	a1,a1,s7
   1293a:	8e9d                	sub	a3,a3,a5
   1293c:	c554                	sw	a3,12(a0)
   1293e:	c918                	sw	a4,16(a0)
   12940:	c94c                	sw	a1,20(a0)
   12942:	796e                	ld	s2,248(sp)
   12944:	79ce                	ld	s3,240(sp)
   12946:	7a8e                	ld	s5,224(sp)
   12948:	6bce                	ld	s7,208(sp)
   1294a:	6151                	addi	sp,sp,272
   1294c:	8082                	ret

000000000001294e <fe_mul121666>:
   1294e:	7179                	addi	sp,sp,-48
   12950:	0245ae83          	lw	t4,36(a1) # 2000024 <_RODATA_END_+0x1fe0b24>
   12954:	e84e                	sd	s3,16(sp)
   12956:	6779                	lui	a4,0x1e
   12958:	0045a983          	lw	s3,4(a1)
   1295c:	b4270713          	addi	a4,a4,-1214 # 1db42 <sc_muladd+0xa52>
   12960:	f026                	sd	s1,32(sp)
   12962:	02ee8eb3          	mul	t4,t4,a4
   12966:	45c4                	lw	s1,12(a1)
   12968:	0145a283          	lw	t0,20(a1)
   1296c:	01c5af03          	lw	t5,28(a1)
   12970:	e056                	sd	s5,0(sp)
   12972:	0005aa83          	lw	s5,0(a1)
   12976:	e452                	sd	s4,8(sp)
   12978:	0085aa03          	lw	s4,8(a1)
   1297c:	ec4a                	sd	s2,24(sp)
   1297e:	010006b7          	lui	a3,0x1000
   12982:	02e989b3          	mul	s3,s3,a4
   12986:	0105a903          	lw	s2,16(a1)
   1298a:	00de88b3          	add	a7,t4,a3
   1298e:	f422                	sd	s0,40(sp)
   12990:	4198d793          	srai	a5,a7,0x19
   12994:	fe000437          	lui	s0,0xfe000
   12998:	0185a383          	lw	t2,24(a1)
   1299c:	00279e13          	slli	t3,a5,0x2
   129a0:	0088f8b3          	and	a7,a7,s0
   129a4:	9e3e                	add	t3,t3,a5
   129a6:	02e484b3          	mul	s1,s1,a4
   129aa:	00d98833          	add	a6,s3,a3
   129ae:	41985313          	srai	t1,a6,0x19
   129b2:	00887833          	and	a6,a6,s0
   129b6:	410989b3          	sub	s3,s3,a6
   129ba:	0205af83          	lw	t6,32(a1)
   129be:	0e0a                	slli	t3,t3,0x2
   129c0:	411e85b3          	sub	a1,t4,a7
   129c4:	40fe0e33          	sub	t3,t3,a5
   129c8:	020007b7          	lui	a5,0x2000
   129cc:	02e282b3          	mul	t0,t0,a4
   129d0:	00d48833          	add	a6,s1,a3
   129d4:	41985893          	srai	a7,a6,0x19
   129d8:	00887833          	and	a6,a6,s0
   129dc:	410484b3          	sub	s1,s1,a6
   129e0:	fc000637          	lui	a2,0xfc000
   129e4:	02ef0f33          	mul	t5,t5,a4
   129e8:	00d28eb3          	add	t4,t0,a3
   129ec:	419ed813          	srai	a6,t4,0x19
   129f0:	008efeb3          	and	t4,t4,s0
   129f4:	41d282b3          	sub	t0,t0,t4
   129f8:	02ea8ab3          	mul	s5,s5,a4
   129fc:	96fa                	add	a3,a3,t5
   129fe:	4196de93          	srai	t4,a3,0x19
   12a02:	8ee1                	and	a3,a3,s0
   12a04:	40df0f33          	sub	t5,t5,a3
   12a08:	02ea0a33          	mul	s4,s4,a4
   12a0c:	9e56                	add	t3,t3,s5
   12a0e:	00fe06b3          	add	a3,t3,a5
   12a12:	00c6f433          	and	s0,a3,a2
   12a16:	86e9                	srai	a3,a3,0x1a
   12a18:	96ce                	add	a3,a3,s3
   12a1a:	408e0e33          	sub	t3,t3,s0
   12a1e:	c154                	sw	a3,4(a0)
   12a20:	01c52023          	sw	t3,0(a0)
   12a24:	7422                	ld	s0,40(sp)
   12a26:	02e90933          	mul	s2,s2,a4
   12a2a:	9352                	add	t1,t1,s4
   12a2c:	00f306b3          	add	a3,t1,a5
   12a30:	00c6fe33          	and	t3,a3,a2
   12a34:	86e9                	srai	a3,a3,0x1a
   12a36:	96a6                	add	a3,a3,s1
   12a38:	41c30333          	sub	t1,t1,t3
   12a3c:	c554                	sw	a3,12(a0)
   12a3e:	00652423          	sw	t1,8(a0)
   12a42:	7482                	ld	s1,32(sp)
   12a44:	02e383b3          	mul	t2,t2,a4
   12a48:	98ca                	add	a7,a7,s2
   12a4a:	00f886b3          	add	a3,a7,a5
   12a4e:	00c6f333          	and	t1,a3,a2
   12a52:	86e9                	srai	a3,a3,0x1a
   12a54:	9696                	add	a3,a3,t0
   12a56:	c954                	sw	a3,20(a0)
   12a58:	406888b3          	sub	a7,a7,t1
   12a5c:	01152823          	sw	a7,16(a0)
   12a60:	6962                	ld	s2,24(sp)
   12a62:	02ef8fb3          	mul	t6,t6,a4
   12a66:	981e                	add	a6,a6,t2
   12a68:	00f806b3          	add	a3,a6,a5
   12a6c:	00c6f733          	and	a4,a3,a2
   12a70:	40e80833          	sub	a6,a6,a4
   12a74:	86e9                	srai	a3,a3,0x1a
   12a76:	96fa                	add	a3,a3,t5
   12a78:	01052c23          	sw	a6,24(a0)
   12a7c:	cd54                	sw	a3,28(a0)
   12a7e:	69c2                	ld	s3,16(sp)
   12a80:	01fe8733          	add	a4,t4,t6
   12a84:	97ba                	add	a5,a5,a4
   12a86:	8e7d                	and	a2,a2,a5
   12a88:	87e9                	srai	a5,a5,0x1a
   12a8a:	8f11                	sub	a4,a4,a2
   12a8c:	97ae                	add	a5,a5,a1
   12a8e:	d118                	sw	a4,32(a0)
   12a90:	d15c                	sw	a5,36(a0)
   12a92:	6a22                	ld	s4,8(sp)
   12a94:	6a82                	ld	s5,0(sp)
   12a96:	6145                	addi	sp,sp,48
   12a98:	8082                	ret

0000000000012a9a <fe_neg>:
   12a9a:	0045ae83          	lw	t4,4(a1)
   12a9e:	0085ae03          	lw	t3,8(a1)
   12aa2:	00c5a303          	lw	t1,12(a1)
   12aa6:	0105a883          	lw	a7,16(a1)
   12aaa:	0145a803          	lw	a6,20(a1)
   12aae:	4d90                	lw	a2,24(a1)
   12ab0:	4dd4                	lw	a3,28(a1)
   12ab2:	5198                	lw	a4,32(a1)
   12ab4:	51dc                	lw	a5,36(a1)
   12ab6:	418c                	lw	a1,0(a1)
   12ab8:	41d00ebb          	negw	t4,t4
   12abc:	41c00e3b          	negw	t3,t3
   12ac0:	4060033b          	negw	t1,t1
   12ac4:	411008bb          	negw	a7,a7
   12ac8:	4100083b          	negw	a6,a6
   12acc:	40c0063b          	negw	a2,a2
   12ad0:	40d006bb          	negw	a3,a3
   12ad4:	40e0073b          	negw	a4,a4
   12ad8:	40f007bb          	negw	a5,a5
   12adc:	40b005bb          	negw	a1,a1
   12ae0:	c10c                	sw	a1,0(a0)
   12ae2:	01d52223          	sw	t4,4(a0)
   12ae6:	01c52423          	sw	t3,8(a0)
   12aea:	00652623          	sw	t1,12(a0)
   12aee:	01152823          	sw	a7,16(a0)
   12af2:	01052a23          	sw	a6,20(a0)
   12af6:	cd10                	sw	a2,24(a0)
   12af8:	cd54                	sw	a3,28(a0)
   12afa:	d118                	sw	a4,32(a0)
   12afc:	d15c                	sw	a5,36(a0)
   12afe:	8082                	ret

0000000000012b00 <fe_sq>:
   12b00:	51dc                	lw	a5,36(a1)
   12b02:	0045af83          	lw	t6,4(a1)
   12b06:	45d8                	lw	a4,12(a1)
   12b08:	4194                	lw	a3,0(a1)
   12b0a:	7135                	addi	sp,sp,-160
   12b0c:	0105af03          	lw	t5,16(a1)
   12b10:	fcd2                	sd	s4,120(sp)
   12b12:	e8e6                	sd	s9,80(sp)
   12b14:	0085aa03          	lw	s4,8(a1)
   12b18:	02600c93          	li	s9,38
   12b1c:	e54a                	sd	s2,136(sp)
   12b1e:	001f931b          	slliw	t1,t6,0x1
   12b22:	02fc893b          	mulw	s2,s9,a5
   12b26:	e43a                	sd	a4,8(sp)
   12b28:	f03e                	sd	a5,32(sp)
   12b2a:	0017171b          	slliw	a4,a4,0x1
   12b2e:	0016979b          	slliw	a5,a3,0x1
   12b32:	e0ee                	sd	s11,64(sp)
   12b34:	e4ea                	sd	s10,72(sp)
   12b36:	0205a283          	lw	t0,32(a1)
   12b3a:	e14e                	sd	s3,128(sp)
   12b3c:	0145a983          	lw	s3,20(a1)
   12b40:	02e30db3          	mul	s11,t1,a4
   12b44:	0185a803          	lw	a6,24(a1)
   12b48:	0022989b          	slliw	a7,t0,0x2
   12b4c:	005888bb          	addw	a7,a7,t0
   12b50:	ed22                	sd	s0,152(sp)
   12b52:	0028989b          	slliw	a7,a7,0x2
   12b56:	0019941b          	slliw	s0,s3,0x1
   12b5a:	f0de                	sd	s7,96(sp)
   12b5c:	405888bb          	subw	a7,a7,t0
   12b60:	01c5ab83          	lw	s7,28(a1)
   12b64:	03e78633          	mul	a2,a5,t5
   12b68:	00181e9b          	slliw	t4,a6,0x1
   12b6c:	f4da                	sd	s6,104(sp)
   12b6e:	0028159b          	slliw	a1,a6,0x2
   12b72:	010585bb          	addw	a1,a1,a6
   12b76:	0025959b          	slliw	a1,a1,0x2
   12b7a:	410585bb          	subw	a1,a1,a6
   12b7e:	e926                	sd	s1,144(sp)
   12b80:	001a1e1b          	slliw	t3,s4,0x1
   12b84:	001f149b          	slliw	s1,t5,0x1
   12b88:	034a0d33          	mul	s10,s4,s4
   12b8c:	966e                	add	a2,a2,s11
   12b8e:	ec2e                	sd	a1,24(sp)
   12b90:	020005b7          	lui	a1,0x2000
   12b94:	e826                	sd	s1,16(sp)
   12b96:	fc0004b7          	lui	s1,0xfc000
   12b9a:	ece2                	sd	s8,88(sp)
   12b9c:	001b9c1b          	slliw	s8,s7,0x1
   12ba0:	010003b7          	lui	t2,0x1000
   12ba4:	f8d6                	sd	s5,112(sp)
   12ba6:	03240db3          	mul	s11,s0,s2
   12baa:	966a                	add	a2,a2,s10
   12bac:	fe000ab7          	lui	s5,0xfe000
   12bb0:	031e8d33          	mul	s10,t4,a7
   12bb4:	966e                	add	a2,a2,s11
   12bb6:	037c8b3b          	mulw	s6,s9,s7
   12bba:	966a                	add	a2,a2,s10
   12bbc:	033c8cbb          	mulw	s9,s9,s3
   12bc0:	026f0d33          	mul	s10,t5,t1
   12bc4:	fc66                	sd	s9,56(sp)
   12bc6:	03378eb3          	mul	t4,a5,s3
   12bca:	036b8cb3          	mul	s9,s7,s6
   12bce:	9eea                	add	t4,t4,s10
   12bd0:	6d22                	ld	s10,8(sp)
   12bd2:	9666                	add	a2,a2,s9
   12bd4:	03cd0db3          	mul	s11,s10,t3
   12bd8:	00b60d33          	add	s10,a2,a1
   12bdc:	41ad5c93          	srai	s9,s10,0x1a
   12be0:	009d7d33          	and	s10,s10,s1
   12be4:	41a60633          	sub	a2,a2,s10
   12be8:	f432                	sd	a2,40(sp)
   12bea:	03280d33          	mul	s10,a6,s2
   12bee:	9eee                	add	t4,t4,s11
   12bf0:	03078633          	mul	a2,a5,a6
   12bf4:	9eea                	add	t4,t4,s10
   12bf6:	02830d33          	mul	s10,t1,s0
   12bfa:	031c0db3          	mul	s11,s8,a7
   12bfe:	966a                	add	a2,a2,s10
   12c00:	03cf0d33          	mul	s10,t5,t3
   12c04:	9eee                	add	t4,t4,s11
   12c06:	9ee6                	add	t4,t4,s9
   12c08:	007e8cb3          	add	s9,t4,t2
   12c0c:	419cdd93          	srai	s11,s9,0x19
   12c10:	015cfcb3          	and	s9,s9,s5
   12c14:	419e8eb3          	sub	t4,t4,s9
   12c18:	f876                	sd	t4,48(sp)
   12c1a:	6ea2                	ld	t4,8(sp)
   12c1c:	966a                	add	a2,a2,s10
   12c1e:	02ee8eb3          	mul	t4,t4,a4
   12c22:	032c0d33          	mul	s10,s8,s2
   12c26:	9676                	add	a2,a2,t4
   12c28:	03128cb3          	mul	s9,t0,a7
   12c2c:	966a                	add	a2,a2,s10
   12c2e:	9666                	add	a2,a2,s9
   12c30:	966e                	add	a2,a2,s11
   12c32:	00b60d33          	add	s10,a2,a1
   12c36:	41ad5c93          	srai	s9,s10,0x1a
   12c3a:	009d7d33          	and	s10,s10,s1
   12c3e:	41a60633          	sub	a2,a2,s10
   12c42:	03778eb3          	mul	t4,a5,s7
   12c46:	cd10                	sw	a2,24(a0)
   12c48:	02680633          	mul	a2,a6,t1
   12c4c:	02d686b3          	mul	a3,a3,a3
   12c50:	9eb2                	add	t4,t4,a2
   12c52:	03230633          	mul	a2,t1,s2
   12c56:	03c98d33          	mul	s10,s3,t3
   12c5a:	96b2                	add	a3,a3,a2
   12c5c:	031e0633          	mul	a2,t3,a7
   12c60:	9eea                	add	t4,t4,s10
   12c62:	02ef0d33          	mul	s10,t5,a4
   12c66:	96b2                	add	a3,a3,a2
   12c68:	03830c33          	mul	s8,t1,s8
   12c6c:	9eea                	add	t4,t4,s10
   12c6e:	02578633          	mul	a2,a5,t0
   12c72:	03228d33          	mul	s10,t0,s2
   12c76:	9662                	add	a2,a2,s8
   12c78:	03670db3          	mul	s11,a4,s6
   12c7c:	9eea                	add	t4,t4,s10
   12c7e:	9ee6                	add	t4,t4,s9
   12c80:	007e8d33          	add	s10,t4,t2
   12c84:	419d5c93          	srai	s9,s10,0x19
   12c88:	015d7d33          	and	s10,s10,s5
   12c8c:	41ae8eb3          	sub	t4,t4,s10
   12c90:	01d52e23          	sw	t4,28(a0)
   12c94:	6d42                	ld	s10,16(sp)
   12c96:	03c80c33          	mul	s8,a6,t3
   12c9a:	96ee                	add	a3,a3,s11
   12c9c:	6de2                	ld	s11,24(sp)
   12c9e:	9662                	add	a2,a2,s8
   12ca0:	03bd0eb3          	mul	t4,s10,s11
   12ca4:	032a0c33          	mul	s8,s4,s2
   12ca8:	96f6                	add	a3,a3,t4
   12caa:	03f78d33          	mul	s10,a5,t6
   12cae:	9d62                	add	s10,s10,s8
   12cb0:	7c62                	ld	s8,56(sp)
   12cb2:	02870eb3          	mul	t4,a4,s0
   12cb6:	033c0c33          	mul	s8,s8,s3
   12cba:	9676                	add	a2,a2,t4
   12cbc:	96e2                	add	a3,a3,s8
   12cbe:	00b68db3          	add	s11,a3,a1
   12cc2:	41addc13          	srai	s8,s11,0x1a
   12cc6:	009dfdb3          	and	s11,s11,s1
   12cca:	41b686b3          	sub	a3,a3,s11
   12cce:	03ef0db3          	mul	s11,t5,t5
   12cd2:	03170eb3          	mul	t4,a4,a7
   12cd6:	9db2                	add	s11,s11,a2
   12cd8:	026f8fb3          	mul	t6,t6,t1
   12cdc:	9eea                	add	t4,t4,s10
   12cde:	03478633          	mul	a2,a5,s4
   12ce2:	036f0d33          	mul	s10,t5,s6
   12ce6:	9fb2                	add	t6,t6,a2
   12ce8:	7602                	ld	a2,32(sp)
   12cea:	026282b3          	mul	t0,t0,t1
   12cee:	9d76                	add	s10,s10,t4
   12cf0:	7e82                	ld	t4,32(sp)
   12cf2:	02c78633          	mul	a2,a5,a2
   12cf6:	032e8eb3          	mul	t4,t4,s2
   12cfa:	92b2                	add	t0,t0,a2
   12cfc:	03270633          	mul	a2,a4,s2
   12d00:	9df6                	add	s11,s11,t4
   12d02:	9de6                	add	s11,s11,s9
   12d04:	00bd8eb3          	add	t4,s11,a1
   12d08:	41aedc93          	srai	s9,t4,0x1a
   12d0c:	009efeb3          	and	t4,t4,s1
   12d10:	41dd8db3          	sub	s11,s11,t4
   12d14:	03b52023          	sw	s11,32(a0)
   12d18:	6de2                	ld	s11,24(sp)
   12d1a:	03cb8e33          	mul	t3,s7,t3
   12d1e:	6bc2                	ld	s7,16(sp)
   12d20:	9fb2                	add	t6,t6,a2
   12d22:	03788633          	mul	a2,a7,s7
   12d26:	9e16                	add	t3,t3,t0
   12d28:	03b40eb3          	mul	t4,s0,s11
   12d2c:	9fb2                	add	t6,t6,a2
   12d2e:	02e80733          	mul	a4,a6,a4
   12d32:	9d76                	add	s10,s10,t4
   12d34:	9d62                	add	s10,s10,s8
   12d36:	007d0eb3          	add	t4,s10,t2
   12d3a:	419edc13          	srai	s8,t4,0x19
   12d3e:	015efeb3          	and	t4,t4,s5
   12d42:	41dd0d33          	sub	s10,s10,t4
   12d46:	037989b3          	mul	s3,s3,s7
   12d4a:	9772                	add	a4,a4,t3
   12d4c:	7b86                	ld	s7,96(sp)
   12d4e:	03640633          	mul	a2,s0,s6
   12d52:	974e                	add	a4,a4,s3
   12d54:	9766                	add	a4,a4,s9
   12d56:	00770eb3          	add	t4,a4,t2
   12d5a:	419ed293          	srai	t0,t4,0x19
   12d5e:	015efeb3          	and	t4,t4,s5
   12d62:	41d70733          	sub	a4,a4,t4
   12d66:	7ec2                	ld	t4,48(sp)
   12d68:	d158                	sw	a4,36(a0)
   12d6a:	6cc6                	ld	s9,80(sp)
   12d6c:	967e                	add	a2,a2,t6
   12d6e:	00229f93          	slli	t6,t0,0x2
   12d72:	9f96                	add	t6,t6,t0
   12d74:	0f8a                	slli	t6,t6,0x2
   12d76:	405f8fb3          	sub	t6,t6,t0
   12d7a:	96fe                	add	a3,a3,t6
   12d7c:	6fa2                	ld	t6,8(sp)
   12d7e:	03b80e33          	mul	t3,a6,s11
   12d82:	6d86                	ld	s11,64(sp)
   12d84:	03f787b3          	mul	a5,a5,t6
   12d88:	9672                	add	a2,a2,t3
   12d8a:	9662                	add	a2,a2,s8
   12d8c:	00b602b3          	add	t0,a2,a1
   12d90:	41a2de13          	srai	t3,t0,0x1a
   12d94:	0092f2b3          	and	t0,t0,s1
   12d98:	40560633          	sub	a2,a2,t0
   12d9c:	c510                	sw	a2,8(a0)
   12d9e:	7622                	ld	a2,40(sp)
   12da0:	00b68fb3          	add	t6,a3,a1
   12da4:	026a0333          	mul	t1,s4,t1
   12da8:	009ff9b3          	and	s3,t6,s1
   12dac:	41afdf93          	srai	t6,t6,0x1a
   12db0:	413686b3          	sub	a3,a3,s3
   12db4:	9fea                	add	t6,t6,s10
   12db6:	c114                	sw	a3,0(a0)
   12db8:	01f52223          	sw	t6,4(a0)
   12dbc:	698a                	ld	s3,128(sp)
   12dbe:	7a66                	ld	s4,120(sp)
   12dc0:	6c66                	ld	s8,88(sp)
   12dc2:	032f0f33          	mul	t5,t5,s2
   12dc6:	979a                	add	a5,a5,t1
   12dc8:	692a                	ld	s2,136(sp)
   12dca:	6d26                	ld	s10,72(sp)
   12dcc:	03140433          	mul	s0,s0,a7
   12dd0:	97fa                	add	a5,a5,t5
   12dd2:	03680833          	mul	a6,a6,s6
   12dd6:	97a2                	add	a5,a5,s0
   12dd8:	646a                	ld	s0,152(sp)
   12dda:	7b26                	ld	s6,104(sp)
   12ddc:	97c2                	add	a5,a5,a6
   12dde:	9e3e                	add	t3,t3,a5
   12de0:	93f2                	add	t2,t2,t3
   12de2:	4193d793          	srai	a5,t2,0x19
   12de6:	97b2                	add	a5,a5,a2
   12de8:	95be                	add	a1,a1,a5
   12dea:	8ced                	and	s1,s1,a1
   12dec:	0153f3b3          	and	t2,t2,s5
   12df0:	85e9                	srai	a1,a1,0x1a
   12df2:	8f85                	sub	a5,a5,s1
   12df4:	407e0e33          	sub	t3,t3,t2
   12df8:	95f6                	add	a1,a1,t4
   12dfa:	01c52623          	sw	t3,12(a0)
   12dfe:	c91c                	sw	a5,16(a0)
   12e00:	c94c                	sw	a1,20(a0)
   12e02:	64ca                	ld	s1,144(sp)
   12e04:	7ac6                	ld	s5,112(sp)
   12e06:	610d                	addi	sp,sp,160
   12e08:	8082                	ret

0000000000012e0a <fe_invert>:
   12e0a:	7131                	addi	sp,sp,-192
   12e0c:	f526                	sd	s1,168(sp)
   12e0e:	84aa                	mv	s1,a0
   12e10:	850a                	mv	a0,sp
   12e12:	fd06                	sd	ra,184(sp)
   12e14:	f922                	sd	s0,176(sp)
   12e16:	842e                	mv	s0,a1
   12e18:	ce9ff0ef          	jal	ra,12b00 <fe_sq>
   12e1c:	858a                	mv	a1,sp
   12e1e:	1028                	addi	a0,sp,40
   12e20:	ce1ff0ef          	jal	ra,12b00 <fe_sq>
   12e24:	102c                	addi	a1,sp,40
   12e26:	852e                	mv	a0,a1
   12e28:	cd9ff0ef          	jal	ra,12b00 <fe_sq>
   12e2c:	1030                	addi	a2,sp,40
   12e2e:	85a2                	mv	a1,s0
   12e30:	8532                	mv	a0,a2
   12e32:	dccff0ef          	jal	ra,123fe <fe_mul>
   12e36:	1030                	addi	a2,sp,40
   12e38:	858a                	mv	a1,sp
   12e3a:	850a                	mv	a0,sp
   12e3c:	dc2ff0ef          	jal	ra,123fe <fe_mul>
   12e40:	858a                	mv	a1,sp
   12e42:	0888                	addi	a0,sp,80
   12e44:	cbdff0ef          	jal	ra,12b00 <fe_sq>
   12e48:	102c                	addi	a1,sp,40
   12e4a:	852e                	mv	a0,a1
   12e4c:	0890                	addi	a2,sp,80
   12e4e:	db0ff0ef          	jal	ra,123fe <fe_mul>
   12e52:	102c                	addi	a1,sp,40
   12e54:	0888                	addi	a0,sp,80
   12e56:	cabff0ef          	jal	ra,12b00 <fe_sq>
   12e5a:	4411                	li	s0,4
   12e5c:	088c                	addi	a1,sp,80
   12e5e:	347d                	addiw	s0,s0,-1 # fffffffffdffffff <_RODATA_END_+0xfffffffffdfe0aff>
   12e60:	852e                	mv	a0,a1
   12e62:	c9fff0ef          	jal	ra,12b00 <fe_sq>
   12e66:	f87d                	bnez	s0,12e5c <fe_invert+0x52>
   12e68:	1030                	addi	a2,sp,40
   12e6a:	8532                	mv	a0,a2
   12e6c:	088c                	addi	a1,sp,80
   12e6e:	d90ff0ef          	jal	ra,123fe <fe_mul>
   12e72:	102c                	addi	a1,sp,40
   12e74:	0888                	addi	a0,sp,80
   12e76:	c8bff0ef          	jal	ra,12b00 <fe_sq>
   12e7a:	4425                	li	s0,9
   12e7c:	088c                	addi	a1,sp,80
   12e7e:	347d                	addiw	s0,s0,-1
   12e80:	852e                	mv	a0,a1
   12e82:	c7fff0ef          	jal	ra,12b00 <fe_sq>
   12e86:	f87d                	bnez	s0,12e7c <fe_invert+0x72>
   12e88:	088c                	addi	a1,sp,80
   12e8a:	852e                	mv	a0,a1
   12e8c:	1030                	addi	a2,sp,40
   12e8e:	d70ff0ef          	jal	ra,123fe <fe_mul>
   12e92:	088c                	addi	a1,sp,80
   12e94:	18a8                	addi	a0,sp,120
   12e96:	c6bff0ef          	jal	ra,12b00 <fe_sq>
   12e9a:	444d                	li	s0,19
   12e9c:	18ac                	addi	a1,sp,120
   12e9e:	347d                	addiw	s0,s0,-1
   12ea0:	852e                	mv	a0,a1
   12ea2:	c5fff0ef          	jal	ra,12b00 <fe_sq>
   12ea6:	f87d                	bnez	s0,12e9c <fe_invert+0x92>
   12ea8:	0890                	addi	a2,sp,80
   12eaa:	8532                	mv	a0,a2
   12eac:	18ac                	addi	a1,sp,120
   12eae:	d50ff0ef          	jal	ra,123fe <fe_mul>
   12eb2:	088c                	addi	a1,sp,80
   12eb4:	852e                	mv	a0,a1
   12eb6:	c4bff0ef          	jal	ra,12b00 <fe_sq>
   12eba:	4425                	li	s0,9
   12ebc:	088c                	addi	a1,sp,80
   12ebe:	347d                	addiw	s0,s0,-1
   12ec0:	852e                	mv	a0,a1
   12ec2:	c3fff0ef          	jal	ra,12b00 <fe_sq>
   12ec6:	f87d                	bnez	s0,12ebc <fe_invert+0xb2>
   12ec8:	1030                	addi	a2,sp,40
   12eca:	8532                	mv	a0,a2
   12ecc:	088c                	addi	a1,sp,80
   12ece:	d30ff0ef          	jal	ra,123fe <fe_mul>
   12ed2:	102c                	addi	a1,sp,40
   12ed4:	0888                	addi	a0,sp,80
   12ed6:	c2bff0ef          	jal	ra,12b00 <fe_sq>
   12eda:	03100413          	li	s0,49
   12ede:	088c                	addi	a1,sp,80
   12ee0:	347d                	addiw	s0,s0,-1
   12ee2:	852e                	mv	a0,a1
   12ee4:	c1dff0ef          	jal	ra,12b00 <fe_sq>
   12ee8:	f87d                	bnez	s0,12ede <fe_invert+0xd4>
   12eea:	088c                	addi	a1,sp,80
   12eec:	852e                	mv	a0,a1
   12eee:	1030                	addi	a2,sp,40
   12ef0:	d0eff0ef          	jal	ra,123fe <fe_mul>
   12ef4:	088c                	addi	a1,sp,80
   12ef6:	18a8                	addi	a0,sp,120
   12ef8:	c09ff0ef          	jal	ra,12b00 <fe_sq>
   12efc:	06300413          	li	s0,99
   12f00:	18ac                	addi	a1,sp,120
   12f02:	347d                	addiw	s0,s0,-1
   12f04:	852e                	mv	a0,a1
   12f06:	bfbff0ef          	jal	ra,12b00 <fe_sq>
   12f0a:	f87d                	bnez	s0,12f00 <fe_invert+0xf6>
   12f0c:	0890                	addi	a2,sp,80
   12f0e:	8532                	mv	a0,a2
   12f10:	18ac                	addi	a1,sp,120
   12f12:	cecff0ef          	jal	ra,123fe <fe_mul>
   12f16:	088c                	addi	a1,sp,80
   12f18:	852e                	mv	a0,a1
   12f1a:	be7ff0ef          	jal	ra,12b00 <fe_sq>
   12f1e:	03100413          	li	s0,49
   12f22:	088c                	addi	a1,sp,80
   12f24:	347d                	addiw	s0,s0,-1
   12f26:	852e                	mv	a0,a1
   12f28:	bd9ff0ef          	jal	ra,12b00 <fe_sq>
   12f2c:	f87d                	bnez	s0,12f22 <fe_invert+0x118>
   12f2e:	1030                	addi	a2,sp,40
   12f30:	8532                	mv	a0,a2
   12f32:	088c                	addi	a1,sp,80
   12f34:	ccaff0ef          	jal	ra,123fe <fe_mul>
   12f38:	102c                	addi	a1,sp,40
   12f3a:	852e                	mv	a0,a1
   12f3c:	bc5ff0ef          	jal	ra,12b00 <fe_sq>
   12f40:	4411                	li	s0,4
   12f42:	102c                	addi	a1,sp,40
   12f44:	347d                	addiw	s0,s0,-1
   12f46:	852e                	mv	a0,a1
   12f48:	bb9ff0ef          	jal	ra,12b00 <fe_sq>
   12f4c:	f87d                	bnez	s0,12f42 <fe_invert+0x138>
   12f4e:	860a                	mv	a2,sp
   12f50:	102c                	addi	a1,sp,40
   12f52:	8526                	mv	a0,s1
   12f54:	caaff0ef          	jal	ra,123fe <fe_mul>
   12f58:	70ea                	ld	ra,184(sp)
   12f5a:	744a                	ld	s0,176(sp)
   12f5c:	74aa                	ld	s1,168(sp)
   12f5e:	6129                	addi	sp,sp,192
   12f60:	8082                	ret

0000000000012f62 <fe_pow22523>:
   12f62:	7135                	addi	sp,sp,-160
   12f64:	e14a                	sd	s2,128(sp)
   12f66:	892a                	mv	s2,a0
   12f68:	0028                	addi	a0,sp,8
   12f6a:	ed06                	sd	ra,152(sp)
   12f6c:	e922                	sd	s0,144(sp)
   12f6e:	e526                	sd	s1,136(sp)
   12f70:	84ae                	mv	s1,a1
   12f72:	b8fff0ef          	jal	ra,12b00 <fe_sq>
   12f76:	002c                	addi	a1,sp,8
   12f78:	1808                	addi	a0,sp,48
   12f7a:	b87ff0ef          	jal	ra,12b00 <fe_sq>
   12f7e:	180c                	addi	a1,sp,48
   12f80:	852e                	mv	a0,a1
   12f82:	b7fff0ef          	jal	ra,12b00 <fe_sq>
   12f86:	1810                	addi	a2,sp,48
   12f88:	8532                	mv	a0,a2
   12f8a:	85a6                	mv	a1,s1
   12f8c:	c72ff0ef          	jal	ra,123fe <fe_mul>
   12f90:	002c                	addi	a1,sp,8
   12f92:	1810                	addi	a2,sp,48
   12f94:	852e                	mv	a0,a1
   12f96:	c68ff0ef          	jal	ra,123fe <fe_mul>
   12f9a:	002c                	addi	a1,sp,8
   12f9c:	852e                	mv	a0,a1
   12f9e:	b63ff0ef          	jal	ra,12b00 <fe_sq>
   12fa2:	0030                	addi	a2,sp,8
   12fa4:	8532                	mv	a0,a2
   12fa6:	180c                	addi	a1,sp,48
   12fa8:	c56ff0ef          	jal	ra,123fe <fe_mul>
   12fac:	002c                	addi	a1,sp,8
   12fae:	1808                	addi	a0,sp,48
   12fb0:	b51ff0ef          	jal	ra,12b00 <fe_sq>
   12fb4:	4411                	li	s0,4
   12fb6:	180c                	addi	a1,sp,48
   12fb8:	347d                	addiw	s0,s0,-1
   12fba:	852e                	mv	a0,a1
   12fbc:	b45ff0ef          	jal	ra,12b00 <fe_sq>
   12fc0:	f87d                	bnez	s0,12fb6 <fe_pow22523+0x54>
   12fc2:	0030                	addi	a2,sp,8
   12fc4:	8532                	mv	a0,a2
   12fc6:	180c                	addi	a1,sp,48
   12fc8:	c36ff0ef          	jal	ra,123fe <fe_mul>
   12fcc:	002c                	addi	a1,sp,8
   12fce:	1808                	addi	a0,sp,48
   12fd0:	b31ff0ef          	jal	ra,12b00 <fe_sq>
   12fd4:	4425                	li	s0,9
   12fd6:	180c                	addi	a1,sp,48
   12fd8:	347d                	addiw	s0,s0,-1
   12fda:	852e                	mv	a0,a1
   12fdc:	b25ff0ef          	jal	ra,12b00 <fe_sq>
   12fe0:	f87d                	bnez	s0,12fd6 <fe_pow22523+0x74>
   12fe2:	180c                	addi	a1,sp,48
   12fe4:	852e                	mv	a0,a1
   12fe6:	0030                	addi	a2,sp,8
   12fe8:	c16ff0ef          	jal	ra,123fe <fe_mul>
   12fec:	180c                	addi	a1,sp,48
   12fee:	08a8                	addi	a0,sp,88
   12ff0:	b11ff0ef          	jal	ra,12b00 <fe_sq>
   12ff4:	444d                	li	s0,19
   12ff6:	08ac                	addi	a1,sp,88
   12ff8:	347d                	addiw	s0,s0,-1
   12ffa:	852e                	mv	a0,a1
   12ffc:	b05ff0ef          	jal	ra,12b00 <fe_sq>
   13000:	f87d                	bnez	s0,12ff6 <fe_pow22523+0x94>
   13002:	1810                	addi	a2,sp,48
   13004:	8532                	mv	a0,a2
   13006:	08ac                	addi	a1,sp,88
   13008:	bf6ff0ef          	jal	ra,123fe <fe_mul>
   1300c:	180c                	addi	a1,sp,48
   1300e:	852e                	mv	a0,a1
   13010:	af1ff0ef          	jal	ra,12b00 <fe_sq>
   13014:	4425                	li	s0,9
   13016:	180c                	addi	a1,sp,48
   13018:	347d                	addiw	s0,s0,-1
   1301a:	852e                	mv	a0,a1
   1301c:	ae5ff0ef          	jal	ra,12b00 <fe_sq>
   13020:	f87d                	bnez	s0,13016 <fe_pow22523+0xb4>
   13022:	0030                	addi	a2,sp,8
   13024:	8532                	mv	a0,a2
   13026:	180c                	addi	a1,sp,48
   13028:	bd6ff0ef          	jal	ra,123fe <fe_mul>
   1302c:	002c                	addi	a1,sp,8
   1302e:	1808                	addi	a0,sp,48
   13030:	ad1ff0ef          	jal	ra,12b00 <fe_sq>
   13034:	03100413          	li	s0,49
   13038:	180c                	addi	a1,sp,48
   1303a:	347d                	addiw	s0,s0,-1
   1303c:	852e                	mv	a0,a1
   1303e:	ac3ff0ef          	jal	ra,12b00 <fe_sq>
   13042:	f87d                	bnez	s0,13038 <fe_pow22523+0xd6>
   13044:	180c                	addi	a1,sp,48
   13046:	852e                	mv	a0,a1
   13048:	0030                	addi	a2,sp,8
   1304a:	bb4ff0ef          	jal	ra,123fe <fe_mul>
   1304e:	180c                	addi	a1,sp,48
   13050:	08a8                	addi	a0,sp,88
   13052:	aafff0ef          	jal	ra,12b00 <fe_sq>
   13056:	06300413          	li	s0,99
   1305a:	08ac                	addi	a1,sp,88
   1305c:	347d                	addiw	s0,s0,-1
   1305e:	852e                	mv	a0,a1
   13060:	aa1ff0ef          	jal	ra,12b00 <fe_sq>
   13064:	f87d                	bnez	s0,1305a <fe_pow22523+0xf8>
   13066:	1810                	addi	a2,sp,48
   13068:	8532                	mv	a0,a2
   1306a:	08ac                	addi	a1,sp,88
   1306c:	b92ff0ef          	jal	ra,123fe <fe_mul>
   13070:	180c                	addi	a1,sp,48
   13072:	852e                	mv	a0,a1
   13074:	a8dff0ef          	jal	ra,12b00 <fe_sq>
   13078:	03100413          	li	s0,49
   1307c:	180c                	addi	a1,sp,48
   1307e:	347d                	addiw	s0,s0,-1
   13080:	852e                	mv	a0,a1
   13082:	a7fff0ef          	jal	ra,12b00 <fe_sq>
   13086:	f87d                	bnez	s0,1307c <fe_pow22523+0x11a>
   13088:	0030                	addi	a2,sp,8
   1308a:	8532                	mv	a0,a2
   1308c:	180c                	addi	a1,sp,48
   1308e:	b70ff0ef          	jal	ra,123fe <fe_mul>
   13092:	002c                	addi	a1,sp,8
   13094:	852e                	mv	a0,a1
   13096:	a6bff0ef          	jal	ra,12b00 <fe_sq>
   1309a:	002c                	addi	a1,sp,8
   1309c:	852e                	mv	a0,a1
   1309e:	a63ff0ef          	jal	ra,12b00 <fe_sq>
   130a2:	8626                	mv	a2,s1
   130a4:	002c                	addi	a1,sp,8
   130a6:	854a                	mv	a0,s2
   130a8:	b56ff0ef          	jal	ra,123fe <fe_mul>
   130ac:	60ea                	ld	ra,152(sp)
   130ae:	644a                	ld	s0,144(sp)
   130b0:	64aa                	ld	s1,136(sp)
   130b2:	690a                	ld	s2,128(sp)
   130b4:	610d                	addi	sp,sp,160
   130b6:	8082                	ret

00000000000130b8 <fe_sq2>:
   130b8:	51dc                	lw	a5,36(a1)
   130ba:	0045af83          	lw	t6,4(a1) # 2000004 <_RODATA_END_+0x1fe0b04>
   130be:	45d8                	lw	a4,12(a1)
   130c0:	4194                	lw	a3,0(a1)
   130c2:	7135                	addi	sp,sp,-160
   130c4:	0105af03          	lw	t5,16(a1)
   130c8:	fcd2                	sd	s4,120(sp)
   130ca:	e8e6                	sd	s9,80(sp)
   130cc:	0085aa03          	lw	s4,8(a1)
   130d0:	02600c93          	li	s9,38
   130d4:	e54a                	sd	s2,136(sp)
   130d6:	001f9e1b          	slliw	t3,t6,0x1
   130da:	02fc893b          	mulw	s2,s9,a5
   130de:	e43a                	sd	a4,8(sp)
   130e0:	f03e                	sd	a5,32(sp)
   130e2:	0017171b          	slliw	a4,a4,0x1
   130e6:	0016979b          	slliw	a5,a3,0x1
   130ea:	e0ee                	sd	s11,64(sp)
   130ec:	e4ea                	sd	s10,72(sp)
   130ee:	0205a283          	lw	t0,32(a1)
   130f2:	e14e                	sd	s3,128(sp)
   130f4:	0145a983          	lw	s3,20(a1)
   130f8:	02ee0db3          	mul	s11,t3,a4
   130fc:	0185a883          	lw	a7,24(a1)
   13100:	0022931b          	slliw	t1,t0,0x2
   13104:	0053033b          	addw	t1,t1,t0
   13108:	ed22                	sd	s0,152(sp)
   1310a:	f0de                	sd	s7,96(sp)
   1310c:	0019941b          	slliw	s0,s3,0x1
   13110:	01c5ab83          	lw	s7,28(a1)
   13114:	0023131b          	slliw	t1,t1,0x2
   13118:	4053033b          	subw	t1,t1,t0
   1311c:	03e78633          	mul	a2,a5,t5
   13120:	0018981b          	slliw	a6,a7,0x1
   13124:	f4da                	sd	s6,104(sp)
   13126:	0028959b          	slliw	a1,a7,0x2
   1312a:	011585bb          	addw	a1,a1,a7
   1312e:	0025959b          	slliw	a1,a1,0x2
   13132:	411585bb          	subw	a1,a1,a7
   13136:	e926                	sd	s1,144(sp)
   13138:	001a1e9b          	slliw	t4,s4,0x1
   1313c:	001f149b          	slliw	s1,t5,0x1
   13140:	034a0d33          	mul	s10,s4,s4
   13144:	966e                	add	a2,a2,s11
   13146:	ec2e                	sd	a1,24(sp)
   13148:	020005b7          	lui	a1,0x2000
   1314c:	e826                	sd	s1,16(sp)
   1314e:	fc0004b7          	lui	s1,0xfc000
   13152:	ece2                	sd	s8,88(sp)
   13154:	001b9c1b          	slliw	s8,s7,0x1
   13158:	010003b7          	lui	t2,0x1000
   1315c:	f8d6                	sd	s5,112(sp)
   1315e:	03240db3          	mul	s11,s0,s2
   13162:	966a                	add	a2,a2,s10
   13164:	fe000ab7          	lui	s5,0xfe000
   13168:	02680d33          	mul	s10,a6,t1
   1316c:	966e                	add	a2,a2,s11
   1316e:	037c8b3b          	mulw	s6,s9,s7
   13172:	966a                	add	a2,a2,s10
   13174:	033c8cbb          	mulw	s9,s9,s3
   13178:	03cf0d33          	mul	s10,t5,t3
   1317c:	fc66                	sd	s9,56(sp)
   1317e:	03378833          	mul	a6,a5,s3
   13182:	036b8cb3          	mul	s9,s7,s6
   13186:	986a                	add	a6,a6,s10
   13188:	6d22                	ld	s10,8(sp)
   1318a:	9666                	add	a2,a2,s9
   1318c:	0606                	slli	a2,a2,0x1
   1318e:	03dd0db3          	mul	s11,s10,t4
   13192:	00b60d33          	add	s10,a2,a1
   13196:	41ad5c93          	srai	s9,s10,0x1a
   1319a:	009d7d33          	and	s10,s10,s1
   1319e:	41a60633          	sub	a2,a2,s10
   131a2:	f432                	sd	a2,40(sp)
   131a4:	03288d33          	mul	s10,a7,s2
   131a8:	986e                	add	a6,a6,s11
   131aa:	03178633          	mul	a2,a5,a7
   131ae:	986a                	add	a6,a6,s10
   131b0:	026c0db3          	mul	s11,s8,t1
   131b4:	028e0d33          	mul	s10,t3,s0
   131b8:	986e                	add	a6,a6,s11
   131ba:	0806                	slli	a6,a6,0x1
   131bc:	9866                	add	a6,a6,s9
   131be:	00780cb3          	add	s9,a6,t2
   131c2:	419cdd93          	srai	s11,s9,0x19
   131c6:	015cfcb3          	and	s9,s9,s5
   131ca:	41980833          	sub	a6,a6,s9
   131ce:	f842                	sd	a6,48(sp)
   131d0:	6822                	ld	a6,8(sp)
   131d2:	966a                	add	a2,a2,s10
   131d4:	03df0d33          	mul	s10,t5,t4
   131d8:	02e80833          	mul	a6,a6,a4
   131dc:	966a                	add	a2,a2,s10
   131de:	032c0d33          	mul	s10,s8,s2
   131e2:	9642                	add	a2,a2,a6
   131e4:	02628cb3          	mul	s9,t0,t1
   131e8:	966a                	add	a2,a2,s10
   131ea:	9666                	add	a2,a2,s9
   131ec:	0606                	slli	a2,a2,0x1
   131ee:	966e                	add	a2,a2,s11
   131f0:	00b60d33          	add	s10,a2,a1
   131f4:	41ad5c93          	srai	s9,s10,0x1a
   131f8:	009d7d33          	and	s10,s10,s1
   131fc:	41a60633          	sub	a2,a2,s10
   13200:	03778833          	mul	a6,a5,s7
   13204:	cd10                	sw	a2,24(a0)
   13206:	03c88633          	mul	a2,a7,t3
   1320a:	02d686b3          	mul	a3,a3,a3
   1320e:	9832                	add	a6,a6,a2
   13210:	032e0633          	mul	a2,t3,s2
   13214:	03d98d33          	mul	s10,s3,t4
   13218:	96b2                	add	a3,a3,a2
   1321a:	026e8633          	mul	a2,t4,t1
   1321e:	986a                	add	a6,a6,s10
   13220:	02ef0d33          	mul	s10,t5,a4
   13224:	96b2                	add	a3,a3,a2
   13226:	038e0c33          	mul	s8,t3,s8
   1322a:	986a                	add	a6,a6,s10
   1322c:	02578633          	mul	a2,a5,t0
   13230:	03228d33          	mul	s10,t0,s2
   13234:	9662                	add	a2,a2,s8
   13236:	03670db3          	mul	s11,a4,s6
   1323a:	986a                	add	a6,a6,s10
   1323c:	0806                	slli	a6,a6,0x1
   1323e:	9866                	add	a6,a6,s9
   13240:	00780cb3          	add	s9,a6,t2
   13244:	419cdd13          	srai	s10,s9,0x19
   13248:	015cfcb3          	and	s9,s9,s5
   1324c:	41980833          	sub	a6,a6,s9
   13250:	01052e23          	sw	a6,28(a0)
   13254:	6cc2                	ld	s9,16(sp)
   13256:	03d88c33          	mul	s8,a7,t4
   1325a:	96ee                	add	a3,a3,s11
   1325c:	6de2                	ld	s11,24(sp)
   1325e:	9662                	add	a2,a2,s8
   13260:	03bc8833          	mul	a6,s9,s11
   13264:	03f78c33          	mul	s8,a5,t6
   13268:	96c2                	add	a3,a3,a6
   1326a:	032a0cb3          	mul	s9,s4,s2
   1326e:	9c66                	add	s8,s8,s9
   13270:	7ce2                	ld	s9,56(sp)
   13272:	02870833          	mul	a6,a4,s0
   13276:	033c8cb3          	mul	s9,s9,s3
   1327a:	9642                	add	a2,a2,a6
   1327c:	96e6                	add	a3,a3,s9
   1327e:	0686                	slli	a3,a3,0x1
   13280:	00b68db3          	add	s11,a3,a1
   13284:	41addc93          	srai	s9,s11,0x1a
   13288:	009dfdb3          	and	s11,s11,s1
   1328c:	41b686b3          	sub	a3,a3,s11
   13290:	03ef0db3          	mul	s11,t5,t5
   13294:	02670833          	mul	a6,a4,t1
   13298:	9db2                	add	s11,s11,a2
   1329a:	03cf8fb3          	mul	t6,t6,t3
   1329e:	9862                	add	a6,a6,s8
   132a0:	03478633          	mul	a2,a5,s4
   132a4:	036f0c33          	mul	s8,t5,s6
   132a8:	9fb2                	add	t6,t6,a2
   132aa:	7602                	ld	a2,32(sp)
   132ac:	03c282b3          	mul	t0,t0,t3
   132b0:	9c42                	add	s8,s8,a6
   132b2:	7802                	ld	a6,32(sp)
   132b4:	02c78633          	mul	a2,a5,a2
   132b8:	03280833          	mul	a6,a6,s2
   132bc:	92b2                	add	t0,t0,a2
   132be:	03270633          	mul	a2,a4,s2
   132c2:	9dc2                	add	s11,s11,a6
   132c4:	0d86                	slli	s11,s11,0x1
   132c6:	9dea                	add	s11,s11,s10
   132c8:	00bd8833          	add	a6,s11,a1
   132cc:	41a85d13          	srai	s10,a6,0x1a
   132d0:	00987833          	and	a6,a6,s1
   132d4:	410d8db3          	sub	s11,s11,a6
   132d8:	03b52023          	sw	s11,32(a0)
   132dc:	6de2                	ld	s11,24(sp)
   132de:	03db8eb3          	mul	t4,s7,t4
   132e2:	6bc2                	ld	s7,16(sp)
   132e4:	9fb2                	add	t6,t6,a2
   132e6:	03730633          	mul	a2,t1,s7
   132ea:	9e96                	add	t4,t4,t0
   132ec:	02e88733          	mul	a4,a7,a4
   132f0:	9fb2                	add	t6,t6,a2
   132f2:	03b40833          	mul	a6,s0,s11
   132f6:	9776                	add	a4,a4,t4
   132f8:	037989b3          	mul	s3,s3,s7
   132fc:	9c42                	add	s8,s8,a6
   132fe:	0c06                	slli	s8,s8,0x1
   13300:	9c66                	add	s8,s8,s9
   13302:	007c0833          	add	a6,s8,t2
   13306:	41985c93          	srai	s9,a6,0x19
   1330a:	01587833          	and	a6,a6,s5
   1330e:	410c0c33          	sub	s8,s8,a6
   13312:	7b86                	ld	s7,96(sp)
   13314:	03640633          	mul	a2,s0,s6
   13318:	974e                	add	a4,a4,s3
   1331a:	0706                	slli	a4,a4,0x1
   1331c:	976a                	add	a4,a4,s10
   1331e:	6d26                	ld	s10,72(sp)
   13320:	967e                	add	a2,a2,t6
   13322:	00770fb3          	add	t6,a4,t2
   13326:	419fd293          	srai	t0,t6,0x19
   1332a:	00229813          	slli	a6,t0,0x2
   1332e:	9816                	add	a6,a6,t0
   13330:	080a                	slli	a6,a6,0x2
   13332:	40580833          	sub	a6,a6,t0
   13336:	62a2                	ld	t0,8(sp)
   13338:	03b88eb3          	mul	t4,a7,s11
   1333c:	9836                	add	a6,a6,a3
   1333e:	00b806b3          	add	a3,a6,a1
   13342:	0096f9b3          	and	s3,a3,s1
   13346:	41380833          	sub	a6,a6,s3
   1334a:	01052023          	sw	a6,0(a0)
   1334e:	7842                	ld	a6,48(sp)
   13350:	015fffb3          	and	t6,t6,s5
   13354:	86e9                	srai	a3,a3,0x1a
   13356:	96e2                	add	a3,a3,s8
   13358:	025787b3          	mul	a5,a5,t0
   1335c:	9676                	add	a2,a2,t4
   1335e:	0606                	slli	a2,a2,0x1
   13360:	9666                	add	a2,a2,s9
   13362:	00b602b3          	add	t0,a2,a1
   13366:	41a2de93          	srai	t4,t0,0x1a
   1336a:	0092f2b3          	and	t0,t0,s1
   1336e:	40560633          	sub	a2,a2,t0
   13372:	c510                	sw	a2,8(a0)
   13374:	7622                	ld	a2,40(sp)
   13376:	03ca0e33          	mul	t3,s4,t3
   1337a:	41f70733          	sub	a4,a4,t6
   1337e:	c154                	sw	a3,4(a0)
   13380:	d158                	sw	a4,36(a0)
   13382:	698a                	ld	s3,128(sp)
   13384:	7a66                	ld	s4,120(sp)
   13386:	6c66                	ld	s8,88(sp)
   13388:	6cc6                	ld	s9,80(sp)
   1338a:	6d86                	ld	s11,64(sp)
   1338c:	032f0f33          	mul	t5,t5,s2
   13390:	97f2                	add	a5,a5,t3
   13392:	692a                	ld	s2,136(sp)
   13394:	02640433          	mul	s0,s0,t1
   13398:	97fa                	add	a5,a5,t5
   1339a:	036888b3          	mul	a7,a7,s6
   1339e:	97a2                	add	a5,a5,s0
   133a0:	646a                	ld	s0,152(sp)
   133a2:	7b26                	ld	s6,104(sp)
   133a4:	97c6                	add	a5,a5,a7
   133a6:	0786                	slli	a5,a5,0x1
   133a8:	9ebe                	add	t4,t4,a5
   133aa:	93f6                	add	t2,t2,t4
   133ac:	4193d793          	srai	a5,t2,0x19
   133b0:	97b2                	add	a5,a5,a2
   133b2:	95be                	add	a1,a1,a5
   133b4:	8ced                	and	s1,s1,a1
   133b6:	0153f3b3          	and	t2,t2,s5
   133ba:	85e9                	srai	a1,a1,0x1a
   133bc:	8f85                	sub	a5,a5,s1
   133be:	407e8eb3          	sub	t4,t4,t2
   133c2:	95c2                	add	a1,a1,a6
   133c4:	01d52623          	sw	t4,12(a0)
   133c8:	c91c                	sw	a5,16(a0)
   133ca:	c94c                	sw	a1,20(a0)
   133cc:	64ca                	ld	s1,144(sp)
   133ce:	7ac6                	ld	s5,112(sp)
   133d0:	610d                	addi	sp,sp,160
   133d2:	8082                	ret

00000000000133d4 <fe_sub>:
   133d4:	7139                	addi	sp,sp,-64
   133d6:	f44a                	sd	s2,40(sp)
   133d8:	f04e                	sd	s3,32(sp)
   133da:	ec52                	sd	s4,24(sp)
   133dc:	e856                	sd	s5,16(sp)
   133de:	e45a                	sd	s6,8(sp)
   133e0:	00862a03          	lw	s4,8(a2) # fffffffffc000008 <_RODATA_END_+0xfffffffffbfe0b08>
   133e4:	0045ab03          	lw	s6,4(a1) # 2000004 <_RODATA_END_+0x1fe0b04>
   133e8:	00c62983          	lw	s3,12(a2)
   133ec:	01062903          	lw	s2,16(a2)
   133f0:	00462a83          	lw	s5,4(a2)
   133f4:	0085ae83          	lw	t4,8(a1)
   133f8:	00c5ae03          	lw	t3,12(a1)
   133fc:	0105a303          	lw	t1,16(a1)
   13400:	0145a883          	lw	a7,20(a1)
   13404:	0185a803          	lw	a6,24(a1)
   13408:	4dd4                	lw	a3,28(a1)
   1340a:	5198                	lw	a4,32(a1)
   1340c:	51dc                	lw	a5,36(a1)
   1340e:	00062f03          	lw	t5,0(a2)
   13412:	418c                	lw	a1,0(a1)
   13414:	f826                	sd	s1,48(sp)
   13416:	4a44                	lw	s1,20(a2)
   13418:	fc22                	sd	s0,56(sp)
   1341a:	4e00                	lw	s0,24(a2)
   1341c:	01c62383          	lw	t2,28(a2)
   13420:	02062283          	lw	t0,32(a2)
   13424:	02462f83          	lw	t6,36(a2)
   13428:	414e8ebb          	subw	t4,t4,s4
   1342c:	415b063b          	subw	a2,s6,s5
   13430:	413e0e3b          	subw	t3,t3,s3
   13434:	4123033b          	subw	t1,t1,s2
   13438:	41e585bb          	subw	a1,a1,t5
   1343c:	409888bb          	subw	a7,a7,s1
   13440:	c10c                	sw	a1,0(a0)
   13442:	c150                	sw	a2,4(a0)
   13444:	01d52423          	sw	t4,8(a0)
   13448:	01c52623          	sw	t3,12(a0)
   1344c:	00652823          	sw	t1,16(a0)
   13450:	01152a23          	sw	a7,20(a0)
   13454:	4088083b          	subw	a6,a6,s0
   13458:	7462                	ld	s0,56(sp)
   1345a:	407686bb          	subw	a3,a3,t2
   1345e:	4057073b          	subw	a4,a4,t0
   13462:	41f787bb          	subw	a5,a5,t6
   13466:	01052c23          	sw	a6,24(a0)
   1346a:	cd54                	sw	a3,28(a0)
   1346c:	d118                	sw	a4,32(a0)
   1346e:	d15c                	sw	a5,36(a0)
   13470:	74c2                	ld	s1,48(sp)
   13472:	7922                	ld	s2,40(sp)
   13474:	7982                	ld	s3,32(sp)
   13476:	6a62                	ld	s4,24(sp)
   13478:	6ac2                	ld	s5,16(sp)
   1347a:	6b22                	ld	s6,8(sp)
   1347c:	6121                	addi	sp,sp,64
   1347e:	8082                	ret

0000000000013480 <fe_tobytes>:
   13480:	0245af03          	lw	t5,36(a1)
   13484:	4190                	lw	a2,0(a1)
   13486:	010007b7          	lui	a5,0x1000
   1348a:	002f169b          	slliw	a3,t5,0x2
   1348e:	01e686bb          	addw	a3,a3,t5
   13492:	0026969b          	slliw	a3,a3,0x2
   13496:	41e686bb          	subw	a3,a3,t5
   1349a:	9ebd                	addw	a3,a3,a5
   1349c:	0045a803          	lw	a6,4(a1)
   134a0:	4196d69b          	sraiw	a3,a3,0x19
   134a4:	9eb1                	addw	a3,a3,a2
   134a6:	0085ae03          	lw	t3,8(a1)
   134aa:	41a6d69b          	sraiw	a3,a3,0x1a
   134ae:	010686bb          	addw	a3,a3,a6
   134b2:	00c5ae83          	lw	t4,12(a1)
   134b6:	4196d69b          	sraiw	a3,a3,0x19
   134ba:	01c686bb          	addw	a3,a3,t3
   134be:	0105af83          	lw	t6,16(a1)
   134c2:	41a6d69b          	sraiw	a3,a3,0x1a
   134c6:	01d686bb          	addw	a3,a3,t4
   134ca:	0145a283          	lw	t0,20(a1)
   134ce:	4196d69b          	sraiw	a3,a3,0x19
   134d2:	01f686bb          	addw	a3,a3,t6
   134d6:	0185a383          	lw	t2,24(a1)
   134da:	41a6d69b          	sraiw	a3,a3,0x1a
   134de:	7119                	addi	sp,sp,-128
   134e0:	005686bb          	addw	a3,a3,t0
   134e4:	fca2                	sd	s0,120(sp)
   134e6:	4196d69b          	sraiw	a3,a3,0x19
   134ea:	4dc0                	lw	s0,28(a1)
   134ec:	007686bb          	addw	a3,a3,t2
   134f0:	f8a6                	sd	s1,112(sp)
   134f2:	41a6d69b          	sraiw	a3,a3,0x1a
   134f6:	5184                	lw	s1,32(a1)
   134f8:	9ea1                	addw	a3,a3,s0
   134fa:	4196d69b          	sraiw	a3,a3,0x19
   134fe:	9ea5                	addw	a3,a3,s1
   13500:	41a6d69b          	sraiw	a3,a3,0x1a
   13504:	01e686bb          	addw	a3,a3,t5
   13508:	4196d69b          	sraiw	a3,a3,0x19
   1350c:	0026979b          	slliw	a5,a3,0x2
   13510:	9fb5                	addw	a5,a5,a3
   13512:	0027979b          	slliw	a5,a5,0x2
   13516:	9f95                	subw	a5,a5,a3
   13518:	9fb1                	addw	a5,a5,a2
   1351a:	41a7d31b          	sraiw	t1,a5,0x1a
   1351e:	0103033b          	addw	t1,t1,a6
   13522:	4193589b          	sraiw	a7,t1,0x19
   13526:	01c888bb          	addw	a7,a7,t3
   1352a:	41a8d81b          	sraiw	a6,a7,0x1a
   1352e:	01d8083b          	addw	a6,a6,t4
   13532:	4198559b          	sraiw	a1,a6,0x19
   13536:	01f585bb          	addw	a1,a1,t6
   1353a:	41a5de1b          	sraiw	t3,a1,0x1a
   1353e:	005e0e3b          	addw	t3,t3,t0
   13542:	419e571b          	sraiw	a4,t3,0x19
   13546:	0077073b          	addw	a4,a4,t2
   1354a:	41a7561b          	sraiw	a2,a4,0x1a
   1354e:	9e21                	addw	a2,a2,s0
   13550:	4196569b          	sraiw	a3,a2,0x19
   13554:	9ea5                	addw	a3,a3,s1
   13556:	040002b7          	lui	t0,0x4000
   1355a:	02000fb7          	lui	t6,0x2000
   1355e:	12fd                	addi	t0,t0,-1 # 3ffffff <_RODATA_END_+0x3fe0aff>
   13560:	1ffd                	addi	t6,t6,-1 # 1ffffff <_RODATA_END_+0x1fe0aff>
   13562:	41a6de9b          	sraiw	t4,a3,0x1a
   13566:	0057f7b3          	and	a5,a5,t0
   1356a:	01f37333          	and	t1,t1,t6
   1356e:	0058f8b3          	and	a7,a7,t0
   13572:	01f87833          	and	a6,a6,t6
   13576:	0055f5b3          	and	a1,a1,t0
   1357a:	00577733          	and	a4,a4,t0
   1357e:	01fe7e33          	and	t3,t3,t6
   13582:	01ee8ebb          	addw	t4,t4,t5
   13586:	f4ca                	sd	s2,104(sp)
   13588:	f0ce                	sd	s3,96(sp)
   1358a:	ecd2                	sd	s4,88(sp)
   1358c:	e8d6                	sd	s5,80(sp)
   1358e:	01f67633          	and	a2,a2,t6
   13592:	0056f6b3          	and	a3,a3,t0
   13596:	01fefeb3          	and	t4,t4,t6
   1359a:	00231a9b          	slliw	s5,t1,0x2
   1359e:	00389a1b          	slliw	s4,a7,0x3
   135a2:	0058199b          	slliw	s3,a6,0x5
   135a6:	0065991b          	slliw	s2,a1,0x6
   135aa:	4187d49b          	sraiw	s1,a5,0x18
   135ae:	4163541b          	sraiw	s0,t1,0x16
   135b2:	4158d39b          	sraiw	t2,a7,0x15
   135b6:	4138529b          	sraiw	t0,a6,0x13
   135ba:	418e5f9b          	sraiw	t6,t3,0x18
   135be:	00171f1b          	slliw	t5,a4,0x1
   135c2:	f866                	sd	s9,48(sp)
   135c4:	f46a                	sd	s10,40(sp)
   135c6:	f06e                	sd	s11,32(sp)
   135c8:	4107dd1b          	sraiw	s10,a5,0x10
   135cc:	4087dd9b          	sraiw	s11,a5,0x8
   135d0:	0154e4b3          	or	s1,s1,s5
   135d4:	40635c9b          	sraiw	s9,t1,0x6
   135d8:	01446433          	or	s0,s0,s4
   135dc:	01efef33          	or	t5,t6,t5
   135e0:	40f75a1b          	sraiw	s4,a4,0xf
   135e4:	40775f9b          	sraiw	t6,a4,0x7
   135e8:	0133e3b3          	or	t2,t2,s3
   135ec:	0122e2b3          	or	t0,t0,s2
   135f0:	410e599b          	sraiw	s3,t3,0x10
   135f4:	408e591b          	sraiw	s2,t3,0x8
   135f8:	e4da                	sd	s6,72(sp)
   135fa:	e0de                	sd	s7,64(sp)
   135fc:	fc62                	sd	s8,56(sp)
   135fe:	c44a                	sw	s2,8(sp)
   13600:	c64e                	sw	s3,12(sp)
   13602:	e87a                	sd	t5,16(sp)
   13604:	cc7e                	sw	t6,24(sp)
   13606:	ce52                	sw	s4,28(sp)
   13608:	00f50023          	sb	a5,0(a0)
   1360c:	01b500a3          	sb	s11,1(a0)
   13610:	01a50123          	sb	s10,2(a0)
   13614:	009501a3          	sb	s1,3(a0)
   13618:	01950223          	sb	s9,4(a0)
   1361c:	40e3531b          	sraiw	t1,t1,0xe
   13620:	006502a3          	sb	t1,5(a0)
   13624:	47a2                	lw	a5,8(sp)
   13626:	00850323          	sb	s0,6(a0)
   1362a:	7466                	ld	s0,120(sp)
   1362c:	00f508a3          	sb	a5,17(a0)
   13630:	47b2                	lw	a5,12(sp)
   13632:	4058dc1b          	sraiw	s8,a7,0x5
   13636:	40385b9b          	sraiw	s7,a6,0x3
   1363a:	00f50923          	sb	a5,18(a0)
   1363e:	67c2                	ld	a5,16(sp)
   13640:	4025db1b          	sraiw	s6,a1,0x2
   13644:	40a5da9b          	sraiw	s5,a1,0xa
   13648:	00f509a3          	sb	a5,19(a0)
   1364c:	47e2                	lw	a5,24(sp)
   1364e:	00361a1b          	slliw	s4,a2,0x3
   13652:	0046999b          	slliw	s3,a3,0x4
   13656:	00f50a23          	sb	a5,20(a0)
   1365a:	47f2                	lw	a5,28(sp)
   1365c:	006e991b          	slliw	s2,t4,0x6
   13660:	40d8d89b          	sraiw	a7,a7,0xd
   13664:	40b8581b          	sraiw	a6,a6,0xb
   13668:	4125d59b          	sraiw	a1,a1,0x12
   1366c:	41565f9b          	sraiw	t6,a2,0x15
   13670:	4146df1b          	sraiw	t5,a3,0x14
   13674:	4177571b          	sraiw	a4,a4,0x17
   13678:	01150423          	sb	a7,8(a0)
   1367c:	010505a3          	sb	a6,11(a0)
   13680:	00b507a3          	sb	a1,15(a0)
   13684:	00f50aa3          	sb	a5,21(a0)
   13688:	01476733          	or	a4,a4,s4
   1368c:	4056589b          	sraiw	a7,a2,0x5
   13690:	013fefb3          	or	t6,t6,s3
   13694:	4046d81b          	sraiw	a6,a3,0x4
   13698:	012f6f33          	or	t5,t5,s2
   1369c:	402ed59b          	sraiw	a1,t4,0x2
   136a0:	40aed79b          	sraiw	a5,t4,0xa
   136a4:	40d6561b          	sraiw	a2,a2,0xd
   136a8:	40c6d69b          	sraiw	a3,a3,0xc
   136ac:	412ede9b          	sraiw	t4,t4,0x12
   136b0:	018503a3          	sb	s8,7(a0)
   136b4:	01750523          	sb	s7,10(a0)
   136b8:	016506a3          	sb	s6,13(a0)
   136bc:	01550723          	sb	s5,14(a0)
   136c0:	007504a3          	sb	t2,9(a0)
   136c4:	00550623          	sb	t0,12(a0)
   136c8:	01c50823          	sb	t3,16(a0)
   136cc:	00e50b23          	sb	a4,22(a0)
   136d0:	01150ba3          	sb	a7,23(a0)
   136d4:	00c50c23          	sb	a2,24(a0)
   136d8:	01f50ca3          	sb	t6,25(a0)
   136dc:	01050d23          	sb	a6,26(a0)
   136e0:	00d50da3          	sb	a3,27(a0)
   136e4:	01e50e23          	sb	t5,28(a0)
   136e8:	00b50ea3          	sb	a1,29(a0)
   136ec:	00f50f23          	sb	a5,30(a0)
   136f0:	01d50fa3          	sb	t4,31(a0)
   136f4:	74c6                	ld	s1,112(sp)
   136f6:	7926                	ld	s2,104(sp)
   136f8:	7986                	ld	s3,96(sp)
   136fa:	6a66                	ld	s4,88(sp)
   136fc:	6ac6                	ld	s5,80(sp)
   136fe:	6b26                	ld	s6,72(sp)
   13700:	6b86                	ld	s7,64(sp)
   13702:	7c62                	ld	s8,56(sp)
   13704:	7cc2                	ld	s9,48(sp)
   13706:	7d22                	ld	s10,40(sp)
   13708:	7d82                	ld	s11,32(sp)
   1370a:	6109                	addi	sp,sp,128
   1370c:	8082                	ret

000000000001370e <fe_isnegative>:
   1370e:	7179                	addi	sp,sp,-48
   13710:	85aa                	mv	a1,a0
   13712:	850a                	mv	a0,sp
   13714:	f406                	sd	ra,40(sp)
   13716:	d6bff0ef          	jal	ra,13480 <fe_tobytes>
   1371a:	00014503          	lbu	a0,0(sp)
   1371e:	70a2                	ld	ra,40(sp)
   13720:	8905                	andi	a0,a0,1
   13722:	6145                	addi	sp,sp,48
   13724:	8082                	ret

0000000000013726 <fe_isnonzero>:
   13726:	7179                	addi	sp,sp,-48
   13728:	85aa                	mv	a1,a0
   1372a:	850a                	mv	a0,sp
   1372c:	f406                	sd	ra,40(sp)
   1372e:	d53ff0ef          	jal	ra,13480 <fe_tobytes>
   13732:	00114683          	lbu	a3,1(sp)
   13736:	00014503          	lbu	a0,0(sp)
   1373a:	00214703          	lbu	a4,2(sp)
   1373e:	00314783          	lbu	a5,3(sp)
   13742:	00414603          	lbu	a2,4(sp)
   13746:	8d55                	or	a0,a0,a3
   13748:	8d59                	or	a0,a0,a4
   1374a:	00514683          	lbu	a3,5(sp)
   1374e:	00614703          	lbu	a4,6(sp)
   13752:	8d5d                	or	a0,a0,a5
   13754:	8d51                	or	a0,a0,a2
   13756:	00714783          	lbu	a5,7(sp)
   1375a:	00814603          	lbu	a2,8(sp)
   1375e:	8d55                	or	a0,a0,a3
   13760:	8d59                	or	a0,a0,a4
   13762:	00914683          	lbu	a3,9(sp)
   13766:	00a14703          	lbu	a4,10(sp)
   1376a:	8d5d                	or	a0,a0,a5
   1376c:	8d51                	or	a0,a0,a2
   1376e:	00b14783          	lbu	a5,11(sp)
   13772:	00c14603          	lbu	a2,12(sp)
   13776:	8d55                	or	a0,a0,a3
   13778:	8d59                	or	a0,a0,a4
   1377a:	00d14683          	lbu	a3,13(sp)
   1377e:	00e14703          	lbu	a4,14(sp)
   13782:	8d5d                	or	a0,a0,a5
   13784:	8d51                	or	a0,a0,a2
   13786:	00f14783          	lbu	a5,15(sp)
   1378a:	01014603          	lbu	a2,16(sp)
   1378e:	8d55                	or	a0,a0,a3
   13790:	8d59                	or	a0,a0,a4
   13792:	01114683          	lbu	a3,17(sp)
   13796:	01214703          	lbu	a4,18(sp)
   1379a:	8d5d                	or	a0,a0,a5
   1379c:	8d51                	or	a0,a0,a2
   1379e:	01314783          	lbu	a5,19(sp)
   137a2:	01414603          	lbu	a2,20(sp)
   137a6:	8d55                	or	a0,a0,a3
   137a8:	8d59                	or	a0,a0,a4
   137aa:	01514683          	lbu	a3,21(sp)
   137ae:	01614703          	lbu	a4,22(sp)
   137b2:	8d5d                	or	a0,a0,a5
   137b4:	8d51                	or	a0,a0,a2
   137b6:	01714783          	lbu	a5,23(sp)
   137ba:	01814603          	lbu	a2,24(sp)
   137be:	8d55                	or	a0,a0,a3
   137c0:	8d59                	or	a0,a0,a4
   137c2:	01914683          	lbu	a3,25(sp)
   137c6:	01a14703          	lbu	a4,26(sp)
   137ca:	8d5d                	or	a0,a0,a5
   137cc:	8d51                	or	a0,a0,a2
   137ce:	01b14783          	lbu	a5,27(sp)
   137d2:	01c14603          	lbu	a2,28(sp)
   137d6:	8d55                	or	a0,a0,a3
   137d8:	8d59                	or	a0,a0,a4
   137da:	01d14683          	lbu	a3,29(sp)
   137de:	01e14703          	lbu	a4,30(sp)
   137e2:	8d5d                	or	a0,a0,a5
   137e4:	8d51                	or	a0,a0,a2
   137e6:	01f14783          	lbu	a5,31(sp)
   137ea:	8d55                	or	a0,a0,a3
   137ec:	70a2                	ld	ra,40(sp)
   137ee:	8d59                	or	a0,a0,a4
   137f0:	8d5d                	or	a0,a0,a5
   137f2:	00a03533          	snez	a0,a0
   137f6:	6145                	addi	sp,sp,48
   137f8:	8082                	ret
   137fa:	3441                	addiw	s0,s0,-16
   137fc:	0000                	unimp
   137fe:	7200                	ld	s0,32(a2)
   13800:	7369                	lui	t1,0xffffa
   13802:	01007663          	bgeu	zero,a6,1380e <fe_isnonzero+0xe8>
   13806:	002a                	c.slli	zero,0xa
   13808:	0000                	unimp
   1380a:	1004                	addi	s1,sp,32
   1380c:	7205                	lui	tp,0xfffe1
   1380e:	3676                	fld	fa2,376(sp)
   13810:	6934                	ld	a3,80(a0)
   13812:	7032                	.2byte	0x7032
   13814:	5f30                	lw	a2,120(a4)
   13816:	326d                	addiw	tp,tp,-5 # fffffffffffe0ffb <_RODATA_END_+0xfffffffffffc1afb>
   13818:	3070                	fld	fa2,224(s0)
   1381a:	615f 7032 5f30      	.byte	0x5f, 0x61, 0x32, 0x70, 0x30, 0x5f
   13820:	3266                	fld	ft4,120(sp)
   13822:	3070                	fld	fa2,224(s0)
   13824:	645f 7032 5f30      	.byte	0x5f, 0x64, 0x32, 0x70, 0x30, 0x5f
   1382a:	30703263          	.4byte	0x30703263
	...

0000000000013830 <slide>:
   13830:	1141                	addi	sp,sp,-16
   13832:	e422                	sd	s0,8(sp)
   13834:	e026                	sd	s1,0(sp)
   13836:	4781                	li	a5,0
   13838:	10000693          	li	a3,256
   1383c:	4037d71b          	sraiw	a4,a5,0x3
   13840:	972e                	add	a4,a4,a1
   13842:	00074703          	lbu	a4,0(a4)
   13846:	0077f813          	andi	a6,a5,7
   1384a:	00f50633          	add	a2,a0,a5
   1384e:	4107573b          	sraw	a4,a4,a6
   13852:	8b05                	andi	a4,a4,1
   13854:	00e60023          	sb	a4,0(a2)
   13858:	0785                	addi	a5,a5,1 # 1000001 <_RODATA_END_+0xfe0b01>
   1385a:	fed791e3          	bne	a5,a3,1383c <slide+0xc>
   1385e:	00150693          	addi	a3,a0,1
   13862:	4581                	li	a1,0
   13864:	10000f13          	li	t5,256
   13868:	4485                	li	s1,1
   1386a:	4fbd                	li	t6,15
   1386c:	4e1d                	li	t3,7
   1386e:	10100293          	li	t0,257
   13872:	53c5                	li	t2,-15
   13874:	0ff00413          	li	s0,255
   13878:	fff6c783          	lbu	a5,-1(a3) # ffffff <_RODATA_END_+0xfe0aff>
   1387c:	2585                	addiw	a1,a1,1
   1387e:	eb81                	bnez	a5,1388e <slide+0x5e>
   13880:	0685                	addi	a3,a3,1
   13882:	ffe59be3          	bne	a1,t5,13878 <slide+0x48>
   13886:	6422                	ld	s0,8(sp)
   13888:	6482                	ld	s1,0(sp)
   1388a:	0141                	addi	sp,sp,16
   1388c:	8082                	ret
   1388e:	ffe589e3          	beq	a1,t5,13880 <slide+0x50>
   13892:	8636                	mv	a2,a3
   13894:	882e                	mv	a6,a1
   13896:	4705                	li	a4,1
   13898:	40b2833b          	subw	t1,t0,a1
   1389c:	a029                	j	138a6 <slide+0x76>
   1389e:	2805                	addiw	a6,a6,1
   138a0:	0605                	addi	a2,a2,1
   138a2:	02e30463          	beq	t1,a4,138ca <slide+0x9a>
   138a6:	00060783          	lb	a5,0(a2)
   138aa:	cf89                	beqz	a5,138c4 <slide+0x94>
   138ac:	fff68503          	lb	a0,-1(a3)
   138b0:	00e797bb          	sllw	a5,a5,a4
   138b4:	00f50ebb          	addw	t4,a0,a5
   138b8:	01dfcb63          	blt	t6,t4,138ce <slide+0x9e>
   138bc:	ffd68fa3          	sb	t4,-1(a3)
   138c0:	00060023          	sb	zero,0(a2)
   138c4:	2705                	addiw	a4,a4,1
   138c6:	fdc71ce3          	bne	a4,t3,1389e <slide+0x6e>
   138ca:	0685                	addi	a3,a3,1
   138cc:	b775                	j	13878 <slide+0x48>
   138ce:	40f507bb          	subw	a5,a0,a5
   138d2:	fe77cce3          	blt	a5,t2,138ca <slide+0x9a>
   138d6:	fef68fa3          	sb	a5,-1(a3)
   138da:	ffe805e3          	beq	a6,t5,138c4 <slide+0x94>
   138de:	410407bb          	subw	a5,s0,a6
   138e2:	1782                	slli	a5,a5,0x20
   138e4:	9381                	srli	a5,a5,0x20
   138e6:	00160893          	addi	a7,a2,1
   138ea:	98be                	add	a7,a7,a5
   138ec:	87b2                	mv	a5,a2
   138ee:	a031                	j	138fa <slide+0xca>
   138f0:	00078023          	sb	zero,0(a5)
   138f4:	0785                	addi	a5,a5,1
   138f6:	fcf887e3          	beq	a7,a5,138c4 <slide+0x94>
   138fa:	0007c503          	lbu	a0,0(a5)
   138fe:	f96d                	bnez	a0,138f0 <slide+0xc0>
   13900:	00978023          	sb	s1,0(a5)
   13904:	b7c1                	j	138c4 <slide+0x94>

0000000000013906 <select>:
   13906:	7155                	addi	sp,sp,-208
   13908:	f94a                	sd	s2,176(sp)
   1390a:	43f65793          	srai	a5,a2,0x3f
   1390e:	0ff67913          	zext.b	s2,a2
   13912:	00f977b3          	and	a5,s2,a5
   13916:	0017979b          	slliw	a5,a5,0x1
   1391a:	e586                	sd	ra,200(sp)
   1391c:	40f9093b          	subw	s2,s2,a5
   13920:	e1a2                	sd	s0,192(sp)
   13922:	fd26                	sd	s1,184(sp)
   13924:	f54e                	sd	s3,168(sp)
   13926:	f152                	sd	s4,160(sp)
   13928:	89aa                	mv	s3,a0
   1392a:	ed56                	sd	s5,152(sp)
   1392c:	e95a                	sd	s6,144(sp)
   1392e:	e55e                	sd	s7,136(sp)
   13930:	02850b13          	addi	s6,a0,40
   13934:	84ae                	mv	s1,a1
   13936:	03f65a93          	srli	s5,a2,0x3f
   1393a:	cdcfe0ef          	jal	ra,11e16 <fe_1>
   1393e:	0ff97913          	zext.b	s2,s2
   13942:	855a                	mv	a0,s6
   13944:	05098a13          	addi	s4,s3,80 # fffffffffe000050 <_RODATA_END_+0xfffffffffdfe0b50>
   13948:	ccefe0ef          	jal	ra,11e16 <fe_1>
   1394c:	00194b93          	xori	s7,s2,1
   13950:	00449413          	slli	s0,s1,0x4
   13954:	8552                	mv	a0,s4
   13956:	8c05                	sub	s0,s0,s1
   13958:	1bfd                	addi	s7,s7,-1
   1395a:	00001497          	auipc	s1,0x1
   1395e:	041a                	slli	s0,s0,0x6
   13960:	46648493          	addi	s1,s1,1126 # 14dc0 <base>
   13964:	c88fe0ef          	jal	ra,11dec <fe_0>
   13968:	000bab93          	slti	s7,s7,0
   1396c:	009405b3          	add	a1,s0,s1
   13970:	865e                	mv	a2,s7
   13972:	854e                	mv	a0,s3
   13974:	d78fe0ef          	jal	ra,11eec <fe_cmov>
   13978:	02840593          	addi	a1,s0,40
   1397c:	865e                	mv	a2,s7
   1397e:	95a6                	add	a1,a1,s1
   13980:	855a                	mv	a0,s6
   13982:	d6afe0ef          	jal	ra,11eec <fe_cmov>
   13986:	05040593          	addi	a1,s0,80
   1398a:	865e                	mv	a2,s7
   1398c:	95a6                	add	a1,a1,s1
   1398e:	8552                	mv	a0,s4
   13990:	00294b93          	xori	s7,s2,2
   13994:	d58fe0ef          	jal	ra,11eec <fe_cmov>
   13998:	1bfd                	addi	s7,s7,-1
   1399a:	000bab93          	slti	s7,s7,0
   1399e:	07840593          	addi	a1,s0,120
   139a2:	865e                	mv	a2,s7
   139a4:	95a6                	add	a1,a1,s1
   139a6:	854e                	mv	a0,s3
   139a8:	d44fe0ef          	jal	ra,11eec <fe_cmov>
   139ac:	0a040593          	addi	a1,s0,160
   139b0:	865e                	mv	a2,s7
   139b2:	95a6                	add	a1,a1,s1
   139b4:	855a                	mv	a0,s6
   139b6:	d36fe0ef          	jal	ra,11eec <fe_cmov>
   139ba:	0c840593          	addi	a1,s0,200
   139be:	865e                	mv	a2,s7
   139c0:	95a6                	add	a1,a1,s1
   139c2:	8552                	mv	a0,s4
   139c4:	00394b93          	xori	s7,s2,3
   139c8:	d24fe0ef          	jal	ra,11eec <fe_cmov>
   139cc:	1bfd                	addi	s7,s7,-1
   139ce:	000bab93          	slti	s7,s7,0
   139d2:	0f040593          	addi	a1,s0,240
   139d6:	865e                	mv	a2,s7
   139d8:	95a6                	add	a1,a1,s1
   139da:	854e                	mv	a0,s3
   139dc:	d10fe0ef          	jal	ra,11eec <fe_cmov>
   139e0:	11840593          	addi	a1,s0,280
   139e4:	865e                	mv	a2,s7
   139e6:	95a6                	add	a1,a1,s1
   139e8:	855a                	mv	a0,s6
   139ea:	d02fe0ef          	jal	ra,11eec <fe_cmov>
   139ee:	14040593          	addi	a1,s0,320
   139f2:	865e                	mv	a2,s7
   139f4:	95a6                	add	a1,a1,s1
   139f6:	8552                	mv	a0,s4
   139f8:	00494b93          	xori	s7,s2,4
   139fc:	cf0fe0ef          	jal	ra,11eec <fe_cmov>
   13a00:	1bfd                	addi	s7,s7,-1
   13a02:	000bab93          	slti	s7,s7,0
   13a06:	16840593          	addi	a1,s0,360
   13a0a:	865e                	mv	a2,s7
   13a0c:	95a6                	add	a1,a1,s1
   13a0e:	854e                	mv	a0,s3
   13a10:	cdcfe0ef          	jal	ra,11eec <fe_cmov>
   13a14:	19040593          	addi	a1,s0,400
   13a18:	865e                	mv	a2,s7
   13a1a:	95a6                	add	a1,a1,s1
   13a1c:	855a                	mv	a0,s6
   13a1e:	ccefe0ef          	jal	ra,11eec <fe_cmov>
   13a22:	1b840593          	addi	a1,s0,440
   13a26:	865e                	mv	a2,s7
   13a28:	95a6                	add	a1,a1,s1
   13a2a:	8552                	mv	a0,s4
   13a2c:	00594b93          	xori	s7,s2,5
   13a30:	cbcfe0ef          	jal	ra,11eec <fe_cmov>
   13a34:	1bfd                	addi	s7,s7,-1
   13a36:	000bab93          	slti	s7,s7,0
   13a3a:	1e040593          	addi	a1,s0,480
   13a3e:	865e                	mv	a2,s7
   13a40:	95a6                	add	a1,a1,s1
   13a42:	854e                	mv	a0,s3
   13a44:	ca8fe0ef          	jal	ra,11eec <fe_cmov>
   13a48:	20840593          	addi	a1,s0,520
   13a4c:	865e                	mv	a2,s7
   13a4e:	95a6                	add	a1,a1,s1
   13a50:	855a                	mv	a0,s6
   13a52:	c9afe0ef          	jal	ra,11eec <fe_cmov>
   13a56:	23040593          	addi	a1,s0,560
   13a5a:	865e                	mv	a2,s7
   13a5c:	95a6                	add	a1,a1,s1
   13a5e:	8552                	mv	a0,s4
   13a60:	00694b93          	xori	s7,s2,6
   13a64:	c88fe0ef          	jal	ra,11eec <fe_cmov>
   13a68:	1bfd                	addi	s7,s7,-1
   13a6a:	000bab93          	slti	s7,s7,0
   13a6e:	25840593          	addi	a1,s0,600
   13a72:	865e                	mv	a2,s7
   13a74:	95a6                	add	a1,a1,s1
   13a76:	854e                	mv	a0,s3
   13a78:	c74fe0ef          	jal	ra,11eec <fe_cmov>
   13a7c:	28040593          	addi	a1,s0,640
   13a80:	865e                	mv	a2,s7
   13a82:	95a6                	add	a1,a1,s1
   13a84:	855a                	mv	a0,s6
   13a86:	c66fe0ef          	jal	ra,11eec <fe_cmov>
   13a8a:	2a840593          	addi	a1,s0,680
   13a8e:	865e                	mv	a2,s7
   13a90:	95a6                	add	a1,a1,s1
   13a92:	8552                	mv	a0,s4
   13a94:	00794b93          	xori	s7,s2,7
   13a98:	c54fe0ef          	jal	ra,11eec <fe_cmov>
   13a9c:	1bfd                	addi	s7,s7,-1
   13a9e:	000bab93          	slti	s7,s7,0
   13aa2:	2d040593          	addi	a1,s0,720
   13aa6:	865e                	mv	a2,s7
   13aa8:	95a6                	add	a1,a1,s1
   13aaa:	854e                	mv	a0,s3
   13aac:	c40fe0ef          	jal	ra,11eec <fe_cmov>
   13ab0:	2f840593          	addi	a1,s0,760
   13ab4:	865e                	mv	a2,s7
   13ab6:	95a6                	add	a1,a1,s1
   13ab8:	855a                	mv	a0,s6
   13aba:	c32fe0ef          	jal	ra,11eec <fe_cmov>
   13abe:	32040593          	addi	a1,s0,800
   13ac2:	865e                	mv	a2,s7
   13ac4:	95a6                	add	a1,a1,s1
   13ac6:	8552                	mv	a0,s4
   13ac8:	00894913          	xori	s2,s2,8
   13acc:	c20fe0ef          	jal	ra,11eec <fe_cmov>
   13ad0:	197d                	addi	s2,s2,-1 # fffffffffbffffff <_RODATA_END_+0xfffffffffbfe0aff>
   13ad2:	00092913          	slti	s2,s2,0
   13ad6:	34840593          	addi	a1,s0,840
   13ada:	864a                	mv	a2,s2
   13adc:	95a6                	add	a1,a1,s1
   13ade:	854e                	mv	a0,s3
   13ae0:	c0cfe0ef          	jal	ra,11eec <fe_cmov>
   13ae4:	37040593          	addi	a1,s0,880
   13ae8:	864a                	mv	a2,s2
   13aea:	95a6                	add	a1,a1,s1
   13aec:	855a                	mv	a0,s6
   13aee:	bfefe0ef          	jal	ra,11eec <fe_cmov>
   13af2:	39840593          	addi	a1,s0,920
   13af6:	864a                	mv	a2,s2
   13af8:	95a6                	add	a1,a1,s1
   13afa:	8552                	mv	a0,s4
   13afc:	bf0fe0ef          	jal	ra,11eec <fe_cmov>
   13b00:	85da                	mv	a1,s6
   13b02:	0028                	addi	a0,sp,8
   13b04:	e60fe0ef          	jal	ra,12164 <fe_copy>
   13b08:	85ce                	mv	a1,s3
   13b0a:	1808                	addi	a0,sp,48
   13b0c:	e58fe0ef          	jal	ra,12164 <fe_copy>
   13b10:	85d2                	mv	a1,s4
   13b12:	08a8                	addi	a0,sp,88
   13b14:	f87fe0ef          	jal	ra,12a9a <fe_neg>
   13b18:	2a81                	sext.w	s5,s5
   13b1a:	8656                	mv	a2,s5
   13b1c:	002c                	addi	a1,sp,8
